(dp0
S'http://dbpedia.org/property/cctld'
p1
(lp2
S'cctld'
p3
asS'http://dbpedia.org/property/chassis'
p4
(lp5
S'chassis'
p6
asS'http://dbpedia.org/property/chief3Position'
p7
(lp8
S'chief3 position'
p9
asS'http://dbpedia.org/property/sepRecordHighC'
p10
(lp11
S'Sep record high C'
p12
asS'http://dbpedia.org/property/insignia'
p13
(lp14
S'insignia'
p15
asS'http://dbpedia.org/property/foundedBy'
p16
(lp17
S'founded by'
p18
asVhttp://dbpedia.org/ontology/isPartOf
p19
(lp20
S'part of-property'
p21
aS'part of'
p22
aS'section of'
p23
aS'system of'
p24
aS'assembly of'
p25
aS'meronym of'
p26
aS'within a set'
p27
aS'merged with'
p28
aS'merged into'
p29
aS'subsystem of'
p30
aS'subassembly of'
p31
aS'contained within'
p32
asS'http://dbpedia.org/property/byCountry'
p33
(lp34
S'by country'
p35
asVhttp://dbpedia.org/ontology/landingDate
p36
(lp37
S'spacecraft landing date'
p38
aS'time of spacecraft landing'
p39
aS'spacecraft landing time'
p40
asS'http://dbpedia.org/property/1stishmo'
p41
(lp42
S'1stishmo'
p43
asS'http://dbpedia.org/property/decRainMm'
p44
(lp45
S'Dec rain mm'
p46
asS'http://dbpedia.org/property/trailheads'
p47
(lp48
S'trailheads'
p49
asVhttp://dbpedia.org/property/ulanId
p50
(lp51
S'ULAN'
p52
aS'JPG'
p53
aS'Getty ULAN'
p54
aS'Union List of Artist Names'
p55
aS'ULAN identifier'
p56
aS'ULAN ID'
p57
asS'http://dbpedia.org/property/route'
p58
(lp59
S'route'
p60
asS'http://dbpedia.org/property/floorArea'
p61
(lp62
S'floor area'
p63
asS'http://dbpedia.org/ontology/layout'
p64
(lp65
S'layout'
p66
asS'http://dbpedia.org/property/factory'
p67
(lp68
S'factory'
p69
asS'http://dbpedia.org/property/novRecordLowC'
p70
(lp71
S'Nov record low C'
p72
asS'http://dbpedia.org/property/logoWidth'
p73
(lp74
S'logo width'
p75
asS'http://dbpedia.org/property/minister3Pfo'
p76
(lp77
S'minister3 pfo'
p78
asS'http://dbpedia.org/ontology/spokenIn'
p79
(lp80
S'spoken in'
p81
asS'http://dbpedia.org/property/schedule'
p82
(lp83
S'schedule'
p84
asS'http://dbpedia.org/property/dateOfDeath'
p85
(lp86
S'DATE OF DEATH'
p87
asS'http://dbpedia.org/property/rd4t1Loc'
p88
(lp89
S'RD4T1-loc'
p90
asS'http://dbpedia.org/property/hostCity'
p91
(lp92
S'Host city'
p93
asS'http://dbpedia.org/property/seasonChamp2Name'
p94
(lp95
S'season champ2 name'
p96
asS'http://dbpedia.org/property/templateDocDemo'
p97
(lp98
S'template doc demo'
p99
asS'http://dbpedia.org/property/namedFor'
p100
(lp101
S'named for'
p102
asS'http://dbpedia.org/property/base'
p103
(lp104
S'base'
p105
asS'http://dbpedia.org/property/augRainDays'
p106
(lp107
S'Aug rain days'
p108
asVhttp://dbpedia.org/property/follows
p109
(lp110
S'predecessor'
p111
aS'prequel is'
p112
aS'sequel of'
p113
aS'follows'
p114
aS'previous is'
p115
aS'succeeds to'
p116
aS'before was'
p117
aS'preceded by'
p118
aS'split from'
p119
asS'http://dbpedia.org/property/areaLandSqMi'
p120
(lp121
S'area land sq mi'
p122
asS'http://dbpedia.org/ontology/countryWithFirstSpaceflight'
p123
(lp124
S'country with first spaceflight'
p125
asS'http://dbpedia.org/ontology/sportGoverningBody'
p126
(lp127
S'sport governing body'
p128
asS'http://dbpedia.org/property/notes'
p129
(lp130
S'notes'
p131
asS'http://dbpedia.org/property/float'
p132
(lp133
S'float'
p134
asS'http://dbpedia.org/property/headqurters'
p135
(lp136
S'headqurters'
p137
asS'http://dbpedia.org/property/exits'
p138
(lp139
S'exits'
p140
asS'http://dbpedia.org/property/artists'
p141
(lp142
S'artists'
p143
asVhttp://dbpedia.org/property/birthPlace
p144
(lp145
S'birthplace'
p146
aS'birth city'
p147
aS'born at'
p148
aS'birth place'
p149
aS'place of birth'
p150
aS'born in'
p151
aS'location born'
p152
aS'birth location'
p153
aS'POB'
p154
aS'location of birth'
p155
aS'location'
p156
asS'http://dbpedia.org/property/country/region'
p157
(lp158
S'country/region'
p159
asS'http://dbpedia.org/property/alterEgo'
p160
(lp161
S'alter ego'
p162
asS'http://dbpedia.org/property/populationDemonym'
p163
(lp164
S'population demonym'
p165
asS'http://dbpedia.org/property/teama'
p166
(lp167
S'teamA'
p168
asS'http://dbpedia.org/property/etymologyType'
p169
(lp170
S'etymology type'
p171
asS'http://dbpedia.org/property/teamc'
p172
(lp173
S'teamC'
p174
asS'http://dbpedia.org/property/end'
p175
(lp176
S'end'
p177
asS'http://dbpedia.org/property/pushpinMap'
p178
(lp179
S'pushpin map'
p180
asS'http://dbpedia.org/property/url'
p181
(lp182
S'url'
p183
asS'http://dbpedia.org/ontology/locationCountry'
p184
(lp185
S'pastwo'
p186
asVhttp://dbpedia.org/ontology/populationTotal
p187
(lp188
S'inhabitants'
p189
aS'human population'
p190
aS'population'
p191
asS'http://dbpedia.org/property/debutyr'
p192
(lp193
S'debutyr'
p194
asS'http://dbpedia.org/property/serviceyears'
p195
(lp196
S'serviceyears'
p197
asS'http://dbpedia.org/property/quays'
p198
(lp199
S'quays'
p200
asS'http://dbpedia.org/ontology/sportCountry'
p201
(lp202
S'sport country'
p203
asS'http://dbpedia.org/property/postalCode'
p204
(lp205
S'postal code'
p206
asS'http://dbpedia.org/property/flagS'
p207
(lp208
S'flag s'
p209
asS'http://dbpedia.org/property/junPrecipitationDays'
p210
(lp211
S'Jun precipitation days'
p212
asS'http://dbpedia.org/property/flagP'
p213
(lp214
S'flag p'
p215
asS'http://dbpedia.org/property/sovereigntyNote'
p216
(lp217
S'sovereignty note'
p218
asVhttp://dbpedia.org/ontology/capital
p219
(lp220
S'administrative centre'
p221
aS'capital'
p222
aS'principal place'
p223
aS'capital town'
p224
aS'county seat'
p225
aS'chef-lieu'
p226
aS'administrative headquarters'
p227
aS'capital city'
p228
asS'http://dbpedia.org/property/utc'
p229
(lp230
S'utc'
p231
asS'http://dbpedia.org/property/fullName'
p232
(lp233
S'full name'
p234
asS'http://dbpedia.org/property/blankName'
p235
(lp236
S'blank name'
p237
asS'http://dbpedia.org/property/gdpNominal'
p238
(lp239
S'GDP nominal'
p240
asS'http://dbpedia.org/ontology/productionEndYear'
p241
(lp242
S'production end year'
p243
asS'http://dbpedia.org/property/originCountry'
p244
(lp245
S'Origin country'
p246
asS'http://dbpedia.org/property/1968Headquarters'
p247
(lp248
S'1968\nheadquarters'
p249
asS'http://dbpedia.org/ontology/foundingYear'
p250
(lp251
S'founding year'
p252
asS'http://dbpedia.org/property/localScenes'
p253
(lp254
S'local scenes'
p255
asS'http://dbpedia.org/property/junSun'
p256
(lp257
S'Jun sun'
p258
asS'http://dbpedia.org/property/marPrecipitationDays'
p259
(lp260
S'Mar precipitation days'
p261
asS'http://dbpedia.org/property/commonName'
p262
(lp263
S'common name'
p264
asS'http://dbpedia.org/property/prevseason'
p265
(lp266
S'prevseason'
p267
asS'http://dbpedia.org/property/br'
p268
(lp269
S'br'
p270
asS'http://dbpedia.org/property/training'
p271
(lp272
S'training'
p273
asS'http://dbpedia.org/property/radio'
p274
(lp275
S'radio'
p276
asVhttp://dbpedia.org/property/editing
p277
(lp278
S'film editor'
p279
aS'editor'
p280
aS'edited by'
p281
asS'http://dbpedia.org/property/hmb'
p282
(lp283
S'HMB'
p284
asS'http://dbpedia.org/property/basedIn'
p285
(lp286
S'based in'
p287
asS'http://dbpedia.org/property/disappearedPlace'
p288
(lp289
S'disappeared place'
p290
asS'http://dbpedia.org/property/stadium'
p291
(lp292
S'stadium'
p293
asS'http://dbpedia.org/property/cities'
p294
(lp295
S'cities'
p296
asS'http://dbpedia.org/property/marHighC'
p297
(lp298
S'Mar high C'
p299
asS'http://dbpedia.org/property/homehr'
p300
(lp301
S'HomeHR'
p302
asS'http://dbpedia.org/property/marHumidity'
p303
(lp304
S'Mar humidity'
p305
asS'http://dbpedia.org/property/number'
p306
(lp307
S'number'
p308
asVhttp://dbpedia.org/property/isniId
p309
(lp310
S'International Standard Name Identifier'
p311
aS'ISO 27729'
p312
aS'ISNI'
p313
asVhttp://dbpedia.org/property/occupation
p314
(lp315
S'career'
p316
aS'work'
p317
aS'profession'
p318
aS'job'
p319
aS'craft'
p320
aS'employment'
p321
aS'occupation'
p322
asS'http://dbpedia.org/property/business'
p323
(lp324
S'business'
p325
asS'http://dbpedia.org/property/logosize'
p326
(lp327
S'logosize'
p328
asVhttp://dbpedia.org/property/award
p329
(lp330
S'honorary title'
p331
aS'prize awarded'
p332
aS'prize received'
p333
aS'win'
p334
aS'recognition title'
p335
aS'awards received'
p336
aS'award'
p337
aS'awarded'
p338
aS'awards'
p339
aS'medals'
p340
aS'honours'
p341
aS'award received'
p342
aS'honors'
p343
aS'award won'
p344
asS'http://dbpedia.org/property/category'
p345
(lp346
S'category'
p347
asS'http://dbpedia.org/property/shorts'
p348
(lp349
S'shorts'
p350
asS'http://dbpedia.org/property/video'
p351
(lp352
S'video'
p353
asS'http://dbpedia.org/property/octRecordHighC'
p354
(lp355
S'Oct record high C'
p356
asS'http://dbpedia.org/ontology/patron'
p357
(lp358
S'patron'
p359
asVhttp://dbpedia.org/property/employer
p360
(lp361
S'works at'
p362
aS'employed by'
p363
aS'working for'
p364
aS'workplace'
p365
aS'employer'
p366
asS'http://dbpedia.org/property/sepPrecipitationMm'
p367
(lp368
S'Sep precipitation mm'
p369
asS'http://dbpedia.org/property/hqCity'
p370
(lp371
S'hq city'
p372
asS'http://dbpedia.org/ontology/militaryBranch'
p373
(lp374
S'military branch'
p375
asS'http://dbpedia.org/property/current'
p376
(lp377
S'current'
p378
asS'http://dbpedia.org/property/divisions'
p379
(lp380
S'divisions'
p381
asS'http://dbpedia.org/property/gamesPlace'
p382
(lp383
S'games place'
p384
asS'http://dbpedia.org/ontology/countryWithFirstSatelliteLaunched'
p385
(lp386
S'country with first satellite launched'
p387
asS'http://dbpedia.org/ontology/service'
p388
(lp389
S'service'
p390
asVhttp://dbpedia.org/ontology/ulanId
p391
g51
sS'http://dbpedia.org/property/games'
p392
(lp393
S'games'
p394
asVhttp://dbpedia.org/property/mother
p395
(lp396
S'has mother'
p397
aS'parent'
p398
aS'is child of'
p399
aS'mom'
p400
aS'mother'
p401
aS'mum'
p402
aS'is daughter of'
p403
aS'mam'
p404
aS'is son of'
p405
asS'http://dbpedia.org/property/owners'
p406
(lp407
S'owners'
p408
asS'http://dbpedia.org/property/road'
p409
(lp410
S'Road'
p411
asS'http://dbpedia.org/property/subdivisionType'
p412
(lp413
S'subdivision type'
p414
asS'http://dbpedia.org/ontology/watershed'
p415
(lp416
S'watershed (m2)'
p417
asS'http://dbpedia.org/ontology/releaseLocation'
p418
(lp419
S'release location'
p420
asVhttp://dbpedia.org/ontology/mother
p421
g396
sS'http://dbpedia.org/property/maxtemp'
p422
(lp423
S'maxtemp'
p424
asVhttp://dbpedia.org/ontology/ofsCode
p425
(lp426
S'BFS number'
p427
aS'Swiss municipality code'
p428
asS'http://dbpedia.org/ontology/locationCity'
p429
(lp430
S'location city'
p431
asS'http://dbpedia.org/property/postcode'
p432
(lp433
S'postcode'
p434
asS'http://dbpedia.org/property/placeOfDeath'
p435
(lp436
S'PLACE OF DEATH'
p437
asS'http://dbpedia.org/property/awardedBy'
p438
(lp439
S'awarded by'
p440
asS'http://dbpedia.org/property/mayPrecipitationMm'
p441
(lp442
S'May precipitation mm'
p443
asS'http://dbpedia.org/property/latNs'
p444
(lp445
S'lat NS'
p446
asS'http://dbpedia.org/property/logoCaption'
p447
(lp448
S'logo caption'
p449
asVhttp://dbpedia.org/property/nlaId
p450
(lp451
S'AuCNLKIN'
p452
aS'AuCNLKIN ID'
p453
aS'NLA (Australia) identifier'
p454
aS'NLA Kinetica Service identifier'
p455
aS'NLA (Australia) ID'
p456
aS'Libraries Australia identifier'
p457
aS'CNLKIN'
p458
aS'CNL Kinetica Service identifier'
p459
aS'AuCNLKIN identifier'
p460
aS'Australian National Bibliographic Database identifier'
p461
aS'CNLKIN identifier'
p462
asS'http://dbpedia.org/property/nation'
p463
(lp464
S'nation'
p465
asS'http://dbpedia.org/property/parentAgency'
p466
(lp467
S'parent agency'
p468
asS'http://dbpedia.org/property/works'
p469
(lp470
S'works'
p471
asS'http://dbpedia.org/property/firstLocation'
p472
(lp473
S'first location'
p474
asS'http://dbpedia.org/property/establishedTitle'
p475
(lp476
S'established title'
p477
asS'http://dbpedia.org/property/layout'
p478
(lp479
S'Layout'
p480
asVhttp://dbpedia.org/property/industry
p481
(lp482
S'sector'
p483
aS'branch'
p484
aS'field of action'
p485
aS'industry'
p486
aS'field of exercise'
p487
aS'economic branch'
p488
asS'http://dbpedia.org/ontology/sourcePlace'
p489
(lp490
S'source place'
p491
asS'http://dbpedia.org/property/blank5Name'
p492
(lp493
S'blank5 name'
p494
asS'http://dbpedia.org/property/shipLaidDown'
p495
(lp496
S'Ship laid down'
p497
asS'http://dbpedia.org/property/shipRoute'
p498
(lp499
S'Ship route'
p500
asS'http://dbpedia.org/property/lastAired'
p501
(lp502
S'last aired'
p503
asS'http://dbpedia.org/ontology/disbanded'
p504
(lp505
S'disbanded'
p506
asS'http://dbpedia.org/property/widthStyle'
p507
(lp508
S'width style'
p509
asVhttp://dbpedia.org/ontology/apparentMagnitude
p510
(lp511
S'apparent magnitude'
p512
asS'http://dbpedia.org/property/fangraphs'
p513
(lp514
S'fangraphs'
p515
asS'http://dbpedia.org/ontology/championInDoubleMale'
p516
(lp517
S'champion in double male'
p518
asS'http://dbpedia.org/property/length3Type'
p519
(lp520
S'length3 type'
p521
asS'http://dbpedia.org/property/shieldLink'
p522
(lp523
S'shield link'
p524
asS'http://dbpedia.org/property/inkers'
p525
(lp526
S'inkers'
p527
asVhttp://dbpedia.org/ontology/imdbId
p528
(lp529
S'IMDb ID'
p530
aS'imdb'
p531
aS'IMDb'
p532
aS'IMDb identifier'
p533
aS'Internet Movie Database'
p534
asS'http://dbpedia.org/property/d'
p535
(lp536
S'd'
p537
asS'http://dbpedia.org/property/conventionalLongName'
p538
(lp539
S'conventional long name'
p540
asS'http://dbpedia.org/property/restingPlace'
p541
(lp542
S'resting place'
p543
asS'http://dbpedia.org/property/ef'
p544
(lp545
S'EF'
p546
asVhttp://dbpedia.org/ontology/okatoCode
p547
(lp548
S'OKATO identifier'
p549
aS'OKATO ID'
p550
asS'http://dbpedia.org/property/otherNames'
p551
(lp552
S'other names'
p553
asVhttp://dbpedia.org/ontology/originalLanguage
p554
(lp555
S'original language'
p556
aS'language of the original work'
p557
aS'original language of work'
p558
aS'created on language'
p559
asS'http://dbpedia.org/property/locationCountries'
p560
(lp561
S'location countries'
p562
asVhttp://dbpedia.org/property/inflow
p563
(lp564
S'lake inflows'
p565
aS'lake inflow'
p566
aS'inflows'
p567
aS'inflow'
p568
asS'http://dbpedia.org/property/plant'
p569
(lp570
S'plant'
p571
asS'http://dbpedia.org/property/clubs'
p572
(lp573
S'clubs'
p574
asVhttp://dbpedia.org/ontology/ecNumber
p575
(lp576
S'Enzyme Commission number'
p577
aS'EC number'
p578
asS'http://dbpedia.org/property/nationalteam'
p579
(lp580
S'nationalteam'
p581
asVhttp://dbpedia.org/ontology/chromosome
p582
(lp583
S'on chromosome'
p584
aS'chromosome'
p585
asS'http://dbpedia.org/property/stateParty'
p586
(lp587
S'State Party'
p588
asS'http://dbpedia.org/ontology/militaryUnitSize'
p589
(lp590
S'military unit size'
p591
asVhttp://dbpedia.org/property/iataLocationIdentifier
p592
(lp593
S'IATA airport code'
p594
aS'uio'
p595
aS'International Air Transport Association airport code'
p596
asS'http://dbpedia.org/property/states'
p597
(lp598
S'states'
p599
asS'http://dbpedia.org/property/regType'
p600
(lp601
S'reg-type'
p602
asVhttp://dbpedia.org/ontology/birthDate
p603
(lp604
S'year of birth'
p605
aS'DOB'
p606
aS'date of birth'
p607
aS'birthdate'
p608
aS'birth year'
p609
aS'birthyear'
p610
aS'birthday'
p611
aS'born on'
p612
aS'birth date'
p613
asS'http://dbpedia.org/property/currentlyResides'
p614
(lp615
S'Currently Resides'
p616
asS'http://dbpedia.org/ontology/automobilePlatform'
p617
(lp618
S'automobile platform'
p619
asS'http://dbpedia.org/property/frequency'
p620
(lp621
S'frequency'
p622
asS'http://dbpedia.org/property/placeOfBirth'
p623
(lp624
S'place of birth'
p625
asVhttp://dbpedia.org/property/instrument
p626
(lp627
S'instrument'
p628
aS'plays'
p629
asS'http://dbpedia.org/property/riverSystem'
p630
(lp631
S'river system'
p632
asS'http://dbpedia.org/property/junHumidity'
p633
(lp634
S'Jun humidity'
p635
asS'http://dbpedia.org/ontology/Stream/discharge'
p636
(lp637
S'discharge (m/s)'
p638
asS'http://dbpedia.org/property/stylisticOrigins'
p639
(lp640
S'stylistic origins'
p641
asS'http://dbpedia.org/property/capacity'
p642
(lp643
S'capacity'
p644
asS'http://dbpedia.org/property/currentCity'
p645
(lp646
S'current city'
p647
asS'http://dbpedia.org/property/portrayer'
p648
(lp649
S'portrayer'
p650
asS'http://dbpedia.org/property/isolation'
p651
(lp652
S'isolation'
p653
asVhttp://dbpedia.org/property/ceo
p654
(lp655
S'CEO'
p656
aS'ceo'
p657
aS'chief executive'
p658
aS'chief executive officer'
p659
asS'http://dbpedia.org/property/foundedYear'
p660
(lp661
S'founded year'
p662
asS'http://dbpedia.org/property/sepRainDays'
p663
(lp664
S'Sep rain days'
p665
asS'http://dbpedia.org/property/villain'
p666
(lp667
S'villain'
p668
asVhttp://dbpedia.org/ontology/launchVehicle
p669
(lp670
S'carrier rocket'
p671
aS'space launch vehicle'
p672
aS'launch vehicle'
p673
asS'http://dbpedia.org/ontology/longName'
p674
(lp675
S'longName'
p676
asS'http://dbpedia.org/property/nickname'
p677
(lp678
S'Nickname'
p679
asS'http://dbpedia.org/property/febRecordHighC'
p680
(lp681
S'Feb record high C'
p682
asS'http://dbpedia.org/property/launch'
p683
(lp684
S'launch'
p685
asS'http://dbpedia.org/property/populationAsOf'
p686
(lp687
S'population as of'
p688
asS'http://dbpedia.org/property/1stishhead'
p689
(lp690
S'1stishhead'
p691
asVhttp://dbpedia.org/ontology/manager
p692
(lp693
S'coach'
p694
aS'head coach'
p695
aS'team manager'
p696
aS'manager'
p697
aS'senior coach'
p698
aS'club manager'
p699
asS'http://dbpedia.org/property/junction'
p700
(lp701
S'junction'
p702
asS'http://dbpedia.org/property/exportPartners'
p703
(lp704
S'export-partners'
p705
asS'http://dbpedia.org/property/owned'
p706
(lp707
S'owned'
p708
asS'http://dbpedia.org/ontology/minimumElevation'
p709
(lp710
S'minimum elevation ()'
p711
asS'http://dbpedia.org/property/lowerHouse'
p712
(lp713
S'lower house'
p714
asS'http://dbpedia.org/ontology/areaWater'
p715
(lp716
S'area water (m2)'
p717
asVhttp://dbpedia.org/property/owner
p718
(lp719
S'belongs to'
p720
aS'is owned by'
p721
aS'owned by'
p722
aS'shareholder'
p723
aS'stockholder'
p724
aS'owner'
p725
asS'http://dbpedia.org/property/prevSeries'
p726
(lp727
S'prev series'
p728
asS'http://dbpedia.org/property/co'
p729
(lp730
S'co'
p731
asS'http://dbpedia.org/property/dynasty'
p732
(lp733
S'dynasty'
p734
asS'http://dbpedia.org/property/lats'
p735
(lp736
S'lats'
p737
asVhttp://dbpedia.org/property/diseasesDb
p738
(lp739
S'DiseasesDB'
p740
asS'http://dbpedia.org/ontology/foundedBy'
p741
(lp742
S'founded by'
p743
asS'http://dbpedia.org/property/youthclubs'
p744
(lp745
S'youthclubs'
p746
asS'http://dbpedia.org/property/revenue'
p747
(lp748
S'revenue'
p749
asS'http://dbpedia.org/ontology/opponent'
p750
(lp751
S'opponent'
p752
asS'http://dbpedia.org/property/aprSun'
p753
(lp754
S'Apr sun'
p755
asS'http://dbpedia.org/property/populationBlank'
p756
(lp757
S'population blank'
p758
asS'http://dbpedia.org/property/gdpPppRank'
p759
(lp760
S'GDP PPP rank'
p761
asVhttp://dbpedia.org/ontology/bSide
p762
(lp763
S'b-side'
p764
asS'http://dbpedia.org/property/currentResidence'
p765
(lp766
S'current residence'
p767
asS'http://dbpedia.org/property/decPrecipitationDays'
p768
(lp769
S'Dec precipitation days'
p770
asS'http://dbpedia.org/property/stateFlag'
p771
(lp772
S'state flag'
p773
asS'http://dbpedia.org/property/management'
p774
(lp775
S'management'
p776
asS'http://dbpedia.org/property/join'
p777
(lp778
S'join'
p779
asS'http://dbpedia.org/property/rank'
p780
(lp781
S'rank'
p782
asS'http://dbpedia.org/property/riverName'
p783
(lp784
S'river name'
p785
asS'http://dbpedia.org/property/establishedType'
p786
(lp787
S'established type'
p788
asS'http://dbpedia.org/property/flagSize'
p789
(lp790
S'flag size'
p791
asVhttp://dbpedia.org/ontology/constructionMaterial
p792
(lp793
S'crafted from'
p794
aS'source material'
p795
aS'made of'
p796
aS'manufactured out of'
p797
aS'feedstock'
p798
aS'reactant'
p799
aS'material used'
p800
aS'media'
p801
aS'crafted out of'
p802
aS'contains'
p803
aS'ingredient'
p804
aS'medium'
p805
aS'ore'
p806
aS'manufactured from'
p807
aS'raw material'
p808
aS'constructed out of'
p809
aS'made from'
p810
aS'built from'
p811
aS'formed from'
p812
aS'formed out of'
p813
aS'built out of'
p814
aS'constructed from'
p815
aS'construction material'
p816
asS'http://dbpedia.org/property/mp'
p817
(lp818
S'mp'
p819
asS'http://dbpedia.org/property/extra'
p820
(lp821
S'extra'
p822
asS'http://dbpedia.org/property/northeast'
p823
(lp824
S'Northeast'
p825
asS'http://dbpedia.org/property/length'
p826
(lp827
S'Length'
p828
asS'http://dbpedia.org/ontology/leaderName'
p829
(lp830
S'leader name'
p831
asS'http://dbpedia.org/property/abolished'
p832
(lp833
S'abolished'
p834
asS'http://dbpedia.org/property/areaWaterSqMi'
p835
(lp836
S'area water sq mi'
p837
asS'http://dbpedia.org/property/pixels'
p838
(lp839
S'pixels'
p840
asS'http://dbpedia.org/property/callingCode'
p841
(lp842
S'calling code'
p843
asS'http://dbpedia.org/ontology/numberOfTracks'
p844
(lp845
S'number of tracks'
p846
asS'http://dbpedia.org/ontology/premierePlace'
p847
(lp848
S'premiere place'
p849
asS'http://dbpedia.org/property/website'
p850
(lp851
S'website'
p852
asVhttp://dbpedia.org/property/doctoralAdvisor
p853
(lp854
S'PhD advisor'
p855
aS'doctoral advisor'
p856
aS'doctoral supervisor'
p857
aS'supervisor'
p858
aS'advisor'
p859
asS'http://dbpedia.org/property/broadcastArea'
p860
(lp861
S'broadcast area'
p862
asVhttp://dbpedia.org/ontology/icd10
p863
(lp864
S'ICD-10'
p865
aS'ICD 10'
p866
asS'http://dbpedia.org/ontology/sourceConfluenceMountain'
p867
(lp868
S'source confluence mountain'
p869
asS'http://dbpedia.org/property/areasServed'
p870
(lp871
S'areas served'
p872
asS'http://dbpedia.org/property/city'
p873
(lp874
S'city '
p875
asS'http://dbpedia.org/property/size'
p876
(lp877
S'size'
p878
asS'http://dbpedia.org/property/teams'
p879
(lp880
S'teams'
p881
asVhttp://dbpedia.org/ontology/ceo
p882
g655
sVhttp://dbpedia.org/property/taoiseach
p883
(lp884
S'head of government'
p885
aS'executive power heading by'
p886
aS'president'
p887
aS'premier'
p888
aS'chancellor'
p889
aS'government heading by'
p890
aS'prime minister'
p891
aS'head of national government'
p892
aS'first minister'
p893
aS'mayor'
p894
asS'http://dbpedia.org/ontology/officialSchoolColour'
p895
(lp896
S'official school colour'
p897
asS'http://dbpedia.org/ontology/militaryUnit'
p898
(lp899
S'military unit'
p900
asVhttp://dbpedia.org/ontology/designer
p901
(lp902
S'has designer'
p903
aS'designer'
p904
aS'designed by'
p905
asS'http://dbpedia.org/ontology/subsequentWork'
p906
(lp907
S'subsequent work'
p908
asS'http://dbpedia.org/property/blankInfo'
p909
(lp910
S'blank info'
p911
asS'http://dbpedia.org/property/blank6Name'
p912
(lp913
S'blank6 name'
p914
asS'http://dbpedia.org/property/gfLocation'
p915
(lp916
S'gf-location'
p917
asS'http://dbpedia.org/property/longm'
p918
(lp919
S'longm'
p920
asS'http://dbpedia.org/property/imageSkyline'
p921
(lp922
S'image skyline'
p923
asS'http://dbpedia.org/property/octHighC'
p924
(lp925
S'Oct high C'
p926
asS'http://dbpedia.org/property/electrified'
p927
(lp928
S'electrified'
p929
asS'http://dbpedia.org/property/minister1Name'
p930
(lp931
S'minister1 name'
p932
asS'http://dbpedia.org/property/longd'
p933
(lp934
S'longd'
p935
asS'http://dbpedia.org/property/ruNationalteam'
p936
(lp937
S'ru nationalteam'
p938
asS'http://dbpedia.org/property/logo'
p939
(lp940
S'logo'
p941
asS'http://dbpedia.org/property/longs'
p942
(lp943
S'longs'
p944
asS'http://dbpedia.org/property/footnoteE'
p945
(lp946
S'footnote e'
p947
asS'http://dbpedia.org/ontology/location'
p948
(lp949
S'location'
p950
asS'http://dbpedia.org/property/longM'
p951
(lp952
S'long m'
p953
asS'http://dbpedia.org/property/countries'
p954
(lp955
S'countries'
p956
asS'http://dbpedia.org/property/julRainDays'
p957
(lp958
S'Jul rain days'
p959
asS'http://dbpedia.org/property/longD'
p960
(lp961
S'long d'
p962
asS'http://dbpedia.org/property/octLowC'
p963
(lp964
S'Oct low C'
p965
asS'http://dbpedia.org/property/teamb'
p966
(lp967
S'teamB'
p968
asS'http://dbpedia.org/property/longS'
p969
(lp970
S'long s'
p971
asS'http://dbpedia.org/property/converted'
p972
(lp973
S'converted'
p974
asVhttp://dbpedia.org/ontology/discovered
p975
(lp976
S'discovery date'
p977
aS'date discovered'
p978
aS'date of discovery'
p979
aS'time of discovery'
p980
asVhttp://dbpedia.org/property/selibrId
p981
(lp982
S'LIBRIS'
p983
aS'SELIBR'
p984
asS'http://dbpedia.org/property/placeOfLive'
p985
(lp986
S'PLACE OF LIVE'
p987
asS'http://dbpedia.org/property/height1Imperial'
p988
(lp989
S'height1 imperial'
p990
asVhttp://dbpedia.org/ontology/discoverer
p991
(lp992
S'discoverer or inventor'
p993
aS'discoverer'
p994
aS'invented by'
p995
aS'discovered by'
p996
aS'first described by'
p997
aS'coined by'
p998
aS'inventor'
p999
asVhttp://dbpedia.org/property/gameEngine
p1000
(lp1001
S'engine of software'
p1002
aS'software engine'
p1003
aS'powered by'
p1004
aS'game engine'
p1005
asVhttp://dbpedia.org/ontology/musicBy
p1006
(lp1007
S'music by'
p1008
aS'songwriter'
p1009
aS'composed by'
p1010
aS'written by'
p1011
aS'musical score by'
p1012
aS'composer'
p1013
asS'http://dbpedia.org/property/febRainMm'
p1014
(lp1015
S'Feb rain mm'
p1016
asVhttp://dbpedia.org/ontology/country
p1017
(lp1018
S'country'
p1019
aS'state'
p1020
aS'land'
p1021
aS'sovereign state'
p1022
aS'nation'
p1023
asS'http://dbpedia.org/property/region'
p1024
(lp1025
S'region'
p1026
asS'http://dbpedia.org/property/noc'
p1027
(lp1028
S'NOC'
p1029
asVhttp://dbpedia.org/property/discipline
p1030
(lp1031
S'discipline'
p1032
aS'scientific area'
p1033
aS'domain'
p1034
aS'field of study'
p1035
aS'area'
p1036
aS'academic subject'
p1037
aS'field of work'
p1038
aS'academic area'
p1039
aS'fields'
p1040
aS'specialism'
p1041
aS'academic discipline'
p1042
aS'scientific discipline'
p1043
aS'subject'
p1044
asS'http://dbpedia.org/property/Noautocat'
p1045
(lp1046
S' noautocat'
p1047
asS'http://dbpedia.org/ontology/writer'
p1048
(lp1049
S'writer'
p1050
asS'http://dbpedia.org/ontology/regionServed'
p1051
(lp1052
S'region served'
p1053
asS'http://dbpedia.org/property/areaServed'
p1054
(lp1055
S'area served'
p1056
asS'http://dbpedia.org/property/damCrosses'
p1057
(lp1058
S'dam crosses'
p1059
asS'http://dbpedia.org/property/populationRank'
p1060
(lp1061
S'population rank'
p1062
asVhttp://dbpedia.org/ontology/party
p1063
(lp1064
S'member of political party'
p1065
aS'political party'
p1066
aS'party'
p1067
asS'http://dbpedia.org/property/julLowC'
p1068
(lp1069
S'Jul low C'
p1070
asVhttp://dbpedia.org/property/director
p1071
(lp1072
S'director'
p1073
aS'movie director'
p1074
aS'film director'
p1075
aS'directed by'
p1076
asS'http://dbpedia.org/property/finalteam'
p1077
(lp1078
S'finalteam'
p1079
asS'http://dbpedia.org/property/profession'
p1080
(lp1081
S'profession'
p1082
asS'http://dbpedia.org/ontology/champion'
p1083
(lp1084
S'champion'
p1085
asS'http://dbpedia.org/ontology/parentCompany'
p1086
(lp1087
S'parent company'
p1088
asS'http://dbpedia.org/ontology/length'
p1089
(lp1090
S'length ()'
p1091
asS'http://dbpedia.org/property/productions'
p1092
(lp1093
S'productions'
p1094
asS'http://dbpedia.org/property/clubname'
p1095
(lp1096
S'clubname'
p1097
asS'http://dbpedia.org/property/placeOfResidence'
p1098
(lp1099
S'place of residence'
p1100
asVhttp://dbpedia.org/property/isPartOf
p1101
g20
sS'http://dbpedia.org/property/pronunciation'
p1102
(lp1103
S'pronunciation'
p1104
asVhttp://dbpedia.org/property/startDate
p1105
(lp1106
S'from'
p1107
aS'introduction'
p1108
aS'starting'
p1109
aS'began'
p1110
aS'since'
p1111
aS'start time'
p1112
aS'from date'
p1113
aS'starttime'
p1114
aS'building date'
p1115
aS'from time'
p1116
aS'introduced'
p1117
aS'beginning'
p1118
aS'start date'
p1119
asVhttp://dbpedia.org/ontology/father
p1120
(lp1121
S'dad'
p1122
aS'parent'
p1123
aS'has father'
p1124
aS'papa'
p1125
aS'man, the parent of that person'
p1126
aS'father'
p1127
aS'is child of'
p1128
aS'is daughter of'
p1129
aS'daddy'
p1130
aS'is son of'
p1131
asVhttp://dbpedia.org/property/father
p1132
g1121
sVhttp://dbpedia.org/ontology/founder
p1133
(lp1134
S'founder'
p1135
aS'is founded by'
p1136
aS'founded'
p1137
aS'founded by'
p1138
aS'founders'
p1139
aS'co-founder'
p1140
asS'http://dbpedia.org/ontology/origin'
p1141
(lp1142
S'origin'
p1143
asS'http://dbpedia.org/property/aprHighC'
p1144
(lp1145
S'Apr high C'
p1146
asVhttp://dbpedia.org/ontology/generalManager
p1147
(lp1148
S'general manager'
p1149
asS'http://dbpedia.org/property/yearPrecipitationMm'
p1150
(lp1151
S'year precipitation mm'
p1152
asVhttp://dbpedia.org/resource/Li_Si
p1153
(lp1154
S'Li Si'
p1155
asS'http://dbpedia.org/property/time'
p1156
(lp1157
S'time'
p1158
asS'http://dbpedia.org/property/federal'
p1159
(lp1160
S'federal'
p1161
asS'http://dbpedia.org/property/moreUsers'
p1162
(lp1163
S'more users'
p1164
asS'http://dbpedia.org/ontology/bodyStyle'
p1165
(lp1166
S'body style'
p1167
asS'http://dbpedia.org/ontology/numberOfEmployees'
p1168
(lp1169
S'number of employees'
p1170
asS'http://dbpedia.org/property/lat'
p1171
(lp1172
S'lat'
p1173
asS'http://dbpedia.org/property/blank3Info'
p1174
(lp1175
S'blank3 info'
p1176
asVhttp://dbpedia.org/property/elo
p1177
(lp1178
S'Elo rating'
p1179
asS'http://dbpedia.org/property/incorporated'
p1180
(lp1181
S'incorporated'
p1182
asS'http://dbpedia.org/property/nativeName'
p1183
(lp1184
S'native name'
p1185
asVhttp://dbpedia.org/ontology/basedOn
p1186
(lp1187
S'fork of'
p1188
aS'extended from'
p1189
aS'derived from'
p1190
aS'based upon'
p1191
aS'based on'
p1192
aS'copy of'
p1193
aS'adapted from'
p1194
asS'http://dbpedia.org/property/regionType'
p1195
(lp1196
S'region type'
p1197
asS'http://dbpedia.org/ontology/allegiance'
p1198
(lp1199
S'allegiance'
p1200
asS'http://dbpedia.org/property/rd'
p1201
(lp1202
S'RD'
p1203
asS'http://dbpedia.org/property/code'
p1204
(lp1205
S'code'
p1206
asS'http://dbpedia.org/property/gdpPppPerCapita'
p1207
(lp1208
S'GDP PPP per capita'
p1209
asS'http://dbpedia.org/property/stat3label'
p1210
(lp1211
S'stat3label'
p1212
asS'http://dbpedia.org/property/rp'
p1213
(lp1214
S'RP'
p1215
asS'http://dbpedia.org/ontology/bronzeMedalist'
p1216
(lp1217
S'bronze medalist'
p1218
asS'http://dbpedia.org/ontology/highschool'
p1219
(lp1220
S'highschool'
p1221
asS'http://dbpedia.org/ontology/productionStartYear'
p1222
(lp1223
S'production start year'
p1224
asS'http://dbpedia.org/property/efRank'
p1225
(lp1226
S'EF rank'
p1227
asS'http://dbpedia.org/ontology/orderInOffice'
p1228
(lp1229
S'order in office'
p1230
asS'http://dbpedia.org/property/popplace'
p1231
(lp1232
S'popplace'
p1233
asVhttp://dbpedia.org/property/founder
p1234
g1134
sS'http://dbpedia.org/property/stat3value'
p1235
(lp1236
S'stat3value'
p1237
asS'http://dbpedia.org/property/species'
p1238
(lp1239
S'species'
p1240
asS'http://dbpedia.org/ontology/Building/floorArea'
p1241
(lp1242
S'floor area (m2)'
p1243
asS'http://dbpedia.org/property/founded'
p1244
(lp1245
S'founded'
p1246
asVhttp://dbpedia.org/property/bibsysId
p1247
(lp1248
S'BIBSYS identifier'
p1249
aS'BIBSYS ID'
p1250
asS'http://dbpedia.org/property/commons'
p1251
(lp1252
S'commons'
p1253
asVhttp://dbpedia.org/ontology/award
p1254
g330
sS'http://dbpedia.org/property/station'
p1255
(lp1256
S'station'
p1257
asS'http://dbpedia.org/property/membership'
p1258
(lp1259
S'membership'
p1260
asS'http://dbpedia.org/property/countryServed'
p1261
(lp1262
S'country served'
p1263
asS'http://dbpedia.org/property/regionalScenes'
p1264
(lp1265
S'regional scenes'
p1266
asS'http://dbpedia.org/ontology/servingRailwayLine'
p1267
(lp1268
S'serving railway line'
p1269
asS'http://dbpedia.org/ontology/stylisticOrigin'
p1270
(lp1271
S'stylistic origin'
p1272
asS'http://dbpedia.org/property/no'
p1273
(lp1274
S'no'
p1275
asS'http://dbpedia.org/property/writer'
p1276
(lp1277
S'writer'
p1278
asS'http://dbpedia.org/property/compiler'
p1279
(lp1280
S'Compiler'
p1281
asS'http://dbpedia.org/property/siblingNames'
p1282
(lp1283
S'sibling names'
p1284
asS'http://dbpedia.org/ontology/championInDoubleFemale'
p1285
(lp1286
S'champion in double female'
p1287
asS'http://dbpedia.org/property/discoverers'
p1288
(lp1289
S'discoverers'
p1290
asS'http://dbpedia.org/property/rev'
p1291
(lp1292
S'rev'
p1293
asS'http://dbpedia.org/property/counties'
p1294
(lp1295
S'counties'
p1296
asVhttp://dbpedia.org/ontology/monarch
p1297
(lp1298
S'monarch'
p1299
asS'http://dbpedia.org/property/blank1InfoSec'
p1300
(lp1301
S'blank1 info sec'
p1302
asS'http://dbpedia.org/property/electorsYear'
p1303
(lp1304
S'electors year'
p1305
asS'http://dbpedia.org/ontology/commandStructure'
p1306
(lp1307
S'command structure'
p1308
asVhttp://dbpedia.org/property/manufacturer
p1309
(lp1310
S'made by'
p1311
aS'builder'
p1312
aS'mfr'
p1313
aS'producer (of product)'
p1314
aS'built by'
p1315
aS'manufactured by'
p1316
aS'maker'
p1317
aS'manufacturer'
p1318
asS'http://dbpedia.org/property/state'
p1319
(lp1320
S'state'
p1321
asS'http://dbpedia.org/ontology/voice'
p1322
(lp1323
S'voice'
p1324
asS'http://dbpedia.org/ontology/region'
p1325
(lp1326
S'region'
p1327
asS'http://dbpedia.org/ontology/material'
p1328
(lp1329
S'material'
p1330
asS'http://dbpedia.org/property/patternSh'
p1331
(lp1332
S'pattern sh'
p1333
asS'http://dbpedia.org/property/basinCountries'
p1334
(lp1335
S'basin countries'
p1336
asS'http://dbpedia.org/property/sepRecordLowC'
p1337
(lp1338
S'Sep record low C'
p1339
asS'http://dbpedia.org/property/era'
p1340
(lp1341
S'era'
p1342
asS'http://dbpedia.org/property/janHumidity'
p1343
(lp1344
S'Jan humidity'
p1345
asS'http://dbpedia.org/property/section'
p1346
(lp1347
S'section'
p1348
asS'http://dbpedia.org/property/erp'
p1349
(lp1350
S'erp'
p1351
asS'http://dbpedia.org/property/buried'
p1352
(lp1353
S'buried'
p1354
asS'http://dbpedia.org/property/codeLabel'
p1355
(lp1356
S'code label'
p1357
asVhttp://dbpedia.org/ontology/coatOfArms
p1358
(lp1359
S'symbol'
p1360
aS'heraldic emblem'
p1361
aS'arms'
p1362
aS'coat of arms image'
p1363
aS'CoA image'
p1364
aS'heraldic representation'
p1365
asS'http://dbpedia.org/property/champCity'
p1366
(lp1367
S'champ city'
p1368
asS'http://dbpedia.org/ontology/governor'
p1369
(lp1370
S'governor'
p1371
asS'http://dbpedia.org/ontology/discharge'
p1372
(lp1373
S'discharge (m/s)'
p1374
asS'http://dbpedia.org/property/executivePrincipal'
p1375
(lp1376
S'executive principal'
p1377
asS'http://dbpedia.org/ontology/sourceConfluencePlace'
p1378
(lp1379
S'source confluence place'
p1380
asS'http://dbpedia.org/property/class'
p1381
(lp1382
S'class'
p1383
asS'http://dbpedia.org/property/extraColumn'
p1384
(lp1385
S'extra column'
p1386
asS'http://dbpedia.org/property/represented'
p1387
(lp1388
S'represented'
p1389
asS'http://dbpedia.org/property/agencyName'
p1390
(lp1391
S'agency name'
p1392
asVhttp://dbpedia.org/property/creator
p1393
(lp1394
S'creator'
p1395
aS'painters'
p1396
aS'sculptor'
p1397
aS'created by'
p1398
aS'sculptors'
p1399
aS'creators'
p1400
aS'artist (non-musical)'
p1401
aS'painter'
p1402
asVhttp://dbpedia.org/ontology/unloCode
p1403
(lp1404
S'United Nations LOCODE'
p1405
aS'UN/LOCODE'
p1406
aS'UN location code'
p1407
aS'LOCCODE'
p1408
aS'UNECE location code'
p1409
aS'UNECE LOCODE'
p1410
aS'LOCODE'
p1411
aS'United Nations location code'
p1412
asS'http://dbpedia.org/property/rd1t7Loc'
p1413
(lp1414
S'RD1T7-loc'
p1415
asS'http://dbpedia.org/ontology/commander'
p1416
(lp1417
S'commander'
p1418
asS'http://dbpedia.org/property/scorea'
p1419
(lp1420
S'scoreA'
p1421
asS'http://dbpedia.org/property/scoreb'
p1422
(lp1423
S'scoreB'
p1424
asS'http://dbpedia.org/property/variants'
p1425
(lp1426
S'variants'
p1427
asS'http://dbpedia.org/property/culturalOrigins'
p1428
(lp1429
S'cultural origins'
p1430
asS'http://dbpedia.org/property/stat1label'
p1431
(lp1432
S'stat1label'
p1433
asS'http://dbpedia.org/property/limited'
p1434
(lp1435
S'limited'
p1436
asVhttp://dbpedia.org/ontology/architecturalStyle
p1437
(lp1438
S'architecture'
p1439
aS'style of architecture'
p1440
aS'architectural style'
p1441
asS'http://dbpedia.org/property/dwgs'
p1442
(lp1443
S'dwgs'
p1444
asS'http://dbpedia.org/ontology/completionDate'
p1445
(lp1446
S'completion date'
p1447
asVhttp://dbpedia.org/ontology/dcc
p1448
(lp1449
S'DDC'
p1450
aS'Q48460'
p1451
aS'Dewey Decimal Classification'
p1452
asS'http://dbpedia.org/ontology/birthYear'
p1453
(lp1454
S'birth year'
p1455
asS'http://dbpedia.org/property/allies'
p1456
(lp1457
S'allies'
p1458
asS'http://dbpedia.org/property/sourceRegion'
p1459
(lp1460
S'source region'
p1461
asVhttp://dbpedia.org/property/musicalArtist
p1462
(lp1463
S'singer'
p1464
aS'musician'
p1465
aS'group'
p1466
aS'musical artist'
p1467
aS'music group'
p1468
aS'band'
p1469
aS'performer'
p1470
asS'http://dbpedia.org/property/nearestCity'
p1471
(lp1472
S'nearest city'
p1473
asS'http://dbpedia.org/property/extraHdr'
p1474
(lp1475
S'extra-hdr'
p1476
asS'http://dbpedia.org/property/rainColour'
p1477
(lp1478
S'rain colour'
p1479
asS'http://dbpedia.org/property/jurisdiction'
p1480
(lp1481
S'jurisdiction'
p1482
asS'http://dbpedia.org/property/ongoing'
p1483
(lp1484
S'ongoing'
p1485
asS'http://dbpedia.org/property/deathPlac'
p1486
(lp1487
S'death plac'
p1488
asS'http://dbpedia.org/property/finalleague'
p1489
(lp1490
S'finalleague'
p1491
asVhttp://dbpedia.org/ontology/musicalArtist
p1492
g1463
sS'http://dbpedia.org/property/years'
p1493
(lp1494
S'years'
p1495
asS'http://dbpedia.org/property/stat1value'
p1496
(lp1497
S'stat1value'
p1498
asS'http://dbpedia.org/ontology/poleDriverCountry'
p1499
(lp1500
S'pole driver country'
p1501
asS'http://dbpedia.org/ontology/synonym'
p1502
(lp1503
S'synonym'
p1504
asS'http://dbpedia.org/ontology/officialLanguage'
p1505
(lp1506
S'official language'
p1507
asS'http://dbpedia.org/property/febRecordLowC'
p1508
(lp1509
S'Feb record low C'
p1510
asS'http://dbpedia.org/property/returns'
p1511
(lp1512
S'returns'
p1513
asS'http://dbpedia.org/property/score'
p1514
(lp1515
S'score'
p1516
asS'http://dbpedia.org/property/perpetrators'
p1517
(lp1518
S'perpetrators'
p1519
asS'http://dbpedia.org/property/twin3Country'
p1520
(lp1521
S'twin3 country'
p1522
asS'http://dbpedia.org/property/mintemp'
p1523
(lp1524
S'mintemp'
p1525
asS'http://dbpedia.org/property/notableCommanders'
p1526
(lp1527
S'notable commanders'
p1528
asS'http://dbpedia.org/property/namesake'
p1529
(lp1530
S'namesake'
p1531
asS'http://dbpedia.org/ontology/activeYearsStartYear'
p1532
(lp1533
S'active years start year'
p1534
asS'http://dbpedia.org/property/depositor'
p1535
(lp1536
S'depositor'
p1537
asS'http://dbpedia.org/ontology/billed'
p1538
(lp1539
S'billed'
p1540
asVhttp://dbpedia.org/ontology/eyeColor
p1541
(lp1542
S'eyecolor'
p1543
aS'eye color'
p1544
aS'eyecolour'
p1545
aS'eye colour'
p1546
asS'http://dbpedia.org/property/symbol'
p1547
(lp1548
S'symbol'
p1549
asS'http://dbpedia.org/property/race'
p1550
(lp1551
S'race'
p1552
asVhttp://dbpedia.org/ontology/deathPlace
p1553
(lp1554
S'died in'
p1555
aS'death location'
p1556
aS'deathplace'
p1557
aS'death place'
p1558
aS'POD'
p1559
aS'place of death'
p1560
aS'location of death'
p1561
asS'http://dbpedia.org/property/status'
p1562
(lp1563
S'status'
p1564
asVhttp://dbpedia.org/ontology/diseasesDb
p1565
g739
sS'http://dbpedia.org/property/drivesOn'
p1566
(lp1567
S'drives on'
p1568
asS'http://dbpedia.org/property/junRainMm'
p1569
(lp1570
S'Jun rain mm'
p1571
asS'http://dbpedia.org/property/widthNote'
p1572
(lp1573
S'width note'
p1574
asS'http://dbpedia.org/property/left'
p1575
(lp1576
S'left'
p1577
asS'http://dbpedia.org/ontology/training'
p1578
(lp1579
S'training'
p1580
asVhttp://dbpedia.org/property/citizenship
p1581
(lp1582
S'subject of (country)'
p1583
aS'citizen of'
p1584
aS'nationality'
p1585
aS'country of citizenship'
p1586
aS'citizenship'
p1587
asS'http://dbpedia.org/property/areas'
p1588
(lp1589
S'Areas'
p1590
asS'http://dbpedia.org/ontology/secondDriverCountry'
p1591
(lp1592
S'second driver country'
p1593
asVhttp://dbpedia.org/ontology/emblem
p1594
(lp1595
S'seal image'
p1596
aS'emblem'
p1597
asS'http://dbpedia.org/property/homewater'
p1598
(lp1599
S'HomeWater'
p1600
asS'http://dbpedia.org/property/films'
p1601
(lp1602
S'films'
p1603
asVhttp://dbpedia.org/property/league
p1604
(lp1605
S'league'
p1606
aS'sports league'
p1607
aS'division'
p1608
asS'http://dbpedia.org/property/width1Type'
p1609
(lp1610
S'width1 type'
p1611
asS'http://dbpedia.org/property/populationDensityKm'
p1612
(lp1613
S'population density km'
p1614
asS'http://dbpedia.org/property/janRainDays'
p1615
(lp1616
S'Jan rain days'
p1617
asS'http://dbpedia.org/property/locationCountry'
p1618
(lp1619
S'location country'
p1620
asS'http://dbpedia.org/property/endyr'
p1621
(lp1622
S'endyr'
p1623
asS'http://dbpedia.org/property/music'
p1624
(lp1625
S'music'
p1626
asS'http://dbpedia.org/property/socks'
p1627
(lp1628
S'socks'
p1629
asS'http://dbpedia.org/property/dutyStation'
p1630
(lp1631
S'duty station'
p1632
asS'http://dbpedia.org/property/yearsActive'
p1633
(lp1634
S'years active'
p1635
asS'http://dbpedia.org/property/streetaddress'
p1636
(lp1637
S'streetaddress'
p1638
asS'http://dbpedia.org/property/imageMapCaption'
p1639
(lp1640
S'image map caption'
p1641
asS'http://dbpedia.org/property/web'
p1642
(lp1643
S'web'
p1644
asS'http://dbpedia.org/ontology/hasJunctionWith'
p1645
(lp1646
S'has junction with'
p1647
asS'http://dbpedia.org/ontology/countryOrigin'
p1648
(lp1649
S'country origin'
p1650
asVhttp://dbpedia.org/ontology/computingPlatform
p1651
(lp1652
S'platform'
p1653
aS'game platform'
p1654
aS'computing platform'
p1655
aS'platforms'
p1656
asS'http://dbpedia.org/property/codeType'
p1657
(lp1658
S'code type'
p1659
asS'http://dbpedia.org/property/bgcolor'
p1660
(lp1661
S'bgcolor'
p1662
asS'http://dbpedia.org/property/seasonChampName'
p1663
(lp1664
S'season champ name'
p1665
asS'http://dbpedia.org/property/longew'
p1666
(lp1667
S'longEW'
p1668
asVhttp://dbpedia.org/property/alias
p1669
(lp1670
S'alias'
p1671
aS'stage name'
p1672
aS'pen name'
p1673
aS'nom-de-plume'
p1674
aS'pseudonym'
p1675
asS'http://dbpedia.org/property/numSeasons'
p1676
(lp1677
S'num seasons'
p1678
asS'http://dbpedia.org/property/length2Type'
p1679
(lp1680
S'length2 type'
p1681
asS'http://dbpedia.org/property/spanRange'
p1682
(lp1683
S'span range'
p1684
asVhttp://dbpedia.org/ontology/einecsNumber
p1685
(lp1686
S'EINECS No.'
p1687
aS'EC No.'
p1688
aS'EC no.'
p1689
aS'EC#'
p1690
aS'European Community number'
p1691
asS'http://dbpedia.org/property/emissionsFromOtherChains'
p1692
(lp1693
S'Emissions from other chains'
p1694
asVhttp://dbpedia.org/property/giniCoefficient
p1695
(lp1696
S'Gini coefficient'
p1697
asS'http://dbpedia.org/ontology/isPartOfMilitaryConflict'
p1698
(lp1699
S'is part of military conflict'
p1700
asS'http://dbpedia.org/property/winter'
p1701
(lp1702
S'winter'
p1703
asS'http://dbpedia.org/property/altcat'
p1704
(lp1705
S'altcat'
p1706
asVhttp://dbpedia.org/ontology/doctoralStudent
p1707
(lp1708
S'doctoral student'
p1709
asS'http://dbpedia.org/property/contentLicense'
p1710
(lp1711
S'content license'
p1712
asS'http://dbpedia.org/property/febPrecipitationDays'
p1713
(lp1714
S'Feb precipitation days'
p1715
asS'http://dbpedia.org/ontology/countryWithFirstAstronaut'
p1716
(lp1717
S'country with first astronaut'
p1718
asS'http://dbpedia.org/property/terminusA'
p1719
(lp1720
S'terminus a'
p1721
asS'http://dbpedia.org/property/terminusB'
p1722
(lp1723
S'terminus b'
p1724
asVhttp://dbpedia.org/property/orientation
p1725
(lp1726
S'sexual orientation'
p1727
asS'http://dbpedia.org/property/family'
p1728
(lp1729
S'family'
p1730
asVhttp://dbpedia.org/property/iso6391Code
p1731
(lp1732
S'ISO 639-1 code'
p1733
aS'ISO639-1'
p1734
aS'iso 639-1'
p1735
aS'iso639-1'
p1736
asS'http://dbpedia.org/property/locatedIn'
p1737
(lp1738
S'located in'
p1739
asS'http://dbpedia.org/property/established'
p1740
(lp1741
S'established'
p1742
asS'http://dbpedia.org/property/sepLowC'
p1743
(lp1744
S'Sep low C'
p1745
asS'http://dbpedia.org/property/mouth'
p1746
(lp1747
S'mouth'
p1748
asVhttp://dbpedia.org/property/okatoCode
p1749
g548
sS'http://dbpedia.org/property/search'
p1750
(lp1751
S'search'
p1752
asVhttp://dbpedia.org/property/signature
p1753
(lp1754
S'autograph'
p1755
aS'signature'
p1756
asVhttp://dbpedia.org/ontology/handedness
p1757
(lp1758
S'handedness'
p1759
asS'http://dbpedia.org/property/mouthRegion'
p1760
(lp1761
S'mouth region'
p1762
asS'http://dbpedia.org/property/countryFlag'
p1763
(lp1764
S'country flag'
p1765
asS'http://dbpedia.org/property/foundedPlace'
p1766
(lp1767
S'founded place'
p1768
asS'http://dbpedia.org/property/freeLabel'
p1769
(lp1770
S'free label'
p1771
asS'http://dbpedia.org/property/blank2Name'
p1772
(lp1773
S'blank2 name'
p1774
asVhttp://dbpedia.org/property/icd10
p1775
g864
sS'http://dbpedia.org/ontology/populationPlace'
p1776
(lp1777
S'population place'
p1778
asS'http://dbpedia.org/property/relegation'
p1779
(lp1780
S'relegation'
p1781
asS'http://dbpedia.org/property/creators'
p1782
(lp1783
S'creators'
p1784
asS'http://dbpedia.org/property/child3Agency'
p1785
(lp1786
S'child3 agency'
p1787
asS'http://dbpedia.org/property/nationalAnthem'
p1788
(lp1789
S'national anthem'
p1790
asS'http://dbpedia.org/property/premiereLocation'
p1791
(lp1792
S'premiere location'
p1793
asS'http://dbpedia.org/property/eventStart'
p1794
(lp1795
S'event start'
p1796
asVhttp://dbpedia.org/property/populationTotal
p1797
g188
sS'http://dbpedia.org/property/succession'
p1798
(lp1799
S'succession'
p1800
asS'http://dbpedia.org/property/augHighC'
p1801
(lp1802
S'Aug high C'
p1803
asS'http://dbpedia.org/property/sport'
p1804
(lp1805
S'sport'
p1806
asS'http://dbpedia.org/ontology/MeanOfTransportation/width'
p1807
(lp1808
S'width (mm)'
p1809
asS'http://dbpedia.org/property/lbl'
p1810
(lp1811
S'lbl'
p1812
asS'http://dbpedia.org/property/west'
p1813
(lp1814
S'West'
p1815
asS'http://dbpedia.org/property/through'
p1816
(lp1817
S'through'
p1818
asS'http://dbpedia.org/ontology/compiler'
p1819
(lp1820
S'compiler'
p1821
asVhttp://dbpedia.org/ontology/iataLocationIdentifier
p1822
g593
sS'http://dbpedia.org/property/debutdate'
p1823
(lp1824
S'debutdate'
p1825
asS'http://dbpedia.org/property/southrm'
p1826
(lp1827
S'SouthRM'
p1828
asS'http://dbpedia.org/property/mainCharTeam'
p1829
(lp1830
S'main char team'
p1831
asS'http://dbpedia.org/property/imageMap2Caption'
p1832
(lp1833
S'image map2 caption'
p1834
asS'http://dbpedia.org/ontology/demonym'
p1835
(lp1836
S'demonym'
p1837
asS'http://dbpedia.org/property/members'
p1838
(lp1839
S'members'
p1840
asVhttp://dbpedia.org/ontology/gameEngine
p1841
g1001
sS'http://dbpedia.org/property/debutyear'
p1842
(lp1843
S'debutyear'
p1844
asS'http://dbpedia.org/property/blank1Name'
p1845
(lp1846
S'blank1 name'
p1847
asS'http://dbpedia.org/property/blank2InfoSec'
p1848
(lp1849
S'blank2 info sec'
p1850
asS'http://dbpedia.org/property/ocBs'
p1851
(lp1852
S'oc-bs'
p1853
asS'http://dbpedia.org/property/alsoKnownAs'
p1854
(lp1855
S'also known as'
p1856
asS'http://dbpedia.org/ontology/populationTotalRanking'
p1857
(lp1858
S'total population ranking'
p1859
asS'http://dbpedia.org/ontology/nationality'
p1860
(lp1861
S'nationality'
p1862
asVhttp://dbpedia.org/property/iataAirlineCode
p1863
(lp1864
S'IATA reservation code'
p1865
aS'International Air Transport Association airline designator'
p1866
aS'IATA airline designator'
p1867
asS'http://dbpedia.org/property/agencyType'
p1868
(lp1869
S'agency type'
p1870
asS'http://dbpedia.org/property/coachTeam'
p1871
(lp1872
S'coach team'
p1873
asS'http://dbpedia.org/property/hometown'
p1874
(lp1875
S'hometown'
p1876
asS'http://dbpedia.org/property/commander'
p1877
(lp1878
S'commander'
p1879
asS'http://dbpedia.org/property/nationality'
p1880
(lp1881
S'nationality'
p1882
asVhttp://dbpedia.org/ontology/iso31661Code
p1883
(lp1884
S'ISO 3166-1 alpha-3 code'
p1885
aS'country code ISO 3166-1 alpha-3'
p1886
asS'http://dbpedia.org/property/venue'
p1887
(lp1888
S'venue'
p1889
asVhttp://dbpedia.org/property/chromosome
p1890
g583
sVhttp://dbpedia.org/ontology/diocese
p1891
(lp1892
S'eparchia'
p1893
aS'eparchy'
p1894
aS'diocese'
p1895
asS'http://dbpedia.org/property/written'
p1896
(lp1897
S'written'
p1898
asS'http://dbpedia.org/property/allegance'
p1899
(lp1900
S'allegance'
p1901
asS'http://dbpedia.org/property/heritage'
p1902
(lp1903
S'heritage'
p1904
asS'http://dbpedia.org/property/screenplay'
p1905
(lp1906
S'screenplay'
p1907
asS'http://dbpedia.org/property/child2Agency'
p1908
(lp1909
S'child2 agency'
p1910
asVhttp://dbpedia.org/ontology/coden
p1911
(lp1912
S'CODEN'
p1913
asVhttp://dbpedia.org/property/killedBy
p1914
(lp1915
S'executioner'
p1916
aS'killed by'
p1917
aS'murderer'
p1918
aS'assassinated by'
p1919
aS'murdered by'
p1920
aS'killer'
p1921
aS'executed by'
p1922
aS'mortally wounded by'
p1923
aS'slaughtered by'
p1924
aS'slain by'
p1925
aS'assassin'
p1926
asS'http://dbpedia.org/property/servicenumber'
p1927
(lp1928
S'servicenumber'
p1929
asS'http://dbpedia.org/ontology/owningCompany'
p1930
(lp1931
S'owning company'
p1932
asS'http://dbpedia.org/ontology/activeYearsEndYear'
p1933
(lp1934
S'active years end year'
p1935
asS'http://dbpedia.org/property/site'
p1936
(lp1937
S'site'
p1938
asS'http://dbpedia.org/property/sourceName'
p1939
(lp1940
S'source name'
p1941
asS'http://dbpedia.org/property/giniYear'
p1942
(lp1943
S'Gini year'
p1944
asS'http://dbpedia.org/property/destinations'
p1945
(lp1946
S'destinations'
p1947
asS'http://dbpedia.org/property/superhero'
p1948
(lp1949
S'Superhero'
p1950
asVhttp://dbpedia.org/ontology/coverArtist
p1951
(lp1952
S'cover artist'
p1953
asS'http://dbpedia.org/property/colors'
p1954
(lp1955
S'Colors'
p1956
asS'http://dbpedia.org/property/bg'
p1957
(lp1958
S'bg'
p1959
asS'http://dbpedia.org/property/recLocation'
p1960
(lp1961
S'rec location'
p1962
asS'http://dbpedia.org/ontology/related'
p1963
(lp1964
S'related'
p1965
asS'http://dbpedia.org/ontology/subsidiary'
p1966
(lp1967
S'subsidiary'
p1968
asS'http://dbpedia.org/property/nextseason'
p1969
(lp1970
S'nextseason'
p1971
asS'http://dbpedia.org/ontology/areaLand'
p1972
(lp1973
S'area land (m2)'
p1974
asS'http://dbpedia.org/property/nextcity'
p1975
(lp1976
S'nextcity'
p1977
asVhttp://dbpedia.org/ontology/movement
p1978
(lp1979
S'school'
p1980
aS'movement'
p1981
asS'http://dbpedia.org/property/bc'
p1982
(lp1983
S'BC'
p1984
asS'http://dbpedia.org/property/marRecordLowC'
p1985
(lp1986
S'Mar record low C'
p1987
asS'http://dbpedia.org/property/nearSe'
p1988
(lp1989
S'near-se'
p1990
asS'http://dbpedia.org/property/nearSw'
p1991
(lp1992
S'near-sw'
p1993
asS'http://dbpedia.org/property/knownFor'
p1994
(lp1995
S'known for'
p1996
asS'http://dbpedia.org/property/gold'
p1997
(lp1998
S'gold'
p1999
asS'http://dbpedia.org/property/role'
p2000
(lp2001
S'role'
p2002
asS'http://dbpedia.org/property/homeWorld'
p2003
(lp2004
S'home world'
p2005
asS'http://dbpedia.org/ontology/homeStadium'
p2006
(lp2007
S'home stadium'
p2008
asVhttp://dbpedia.org/ontology/date
p2009
(lp2010
S'"'
p2011
aS"'"
p2012
aS'year'
p2013
aS'when'
p2014
aS'at time'
p2015
aS'point in time'
p2016
aS'time'
p2017
aS'date'
p2018
aS'as of'
p2019
aS'time of event'
p2020
asS'http://dbpedia.org/property/strength'
p2021
(lp2022
S'strength'
p2023
asS'http://dbpedia.org/property/telescope3Type'
p2024
(lp2025
S'telescope3 type'
p2026
asS'http://dbpedia.org/property/blank2Info'
p2027
(lp2028
S'blank2 info'
p2029
asS'http://dbpedia.org/ontology/broadcastStationClass'
p2030
(lp2031
S'broadcast station class'
p2032
asS'http://dbpedia.org/ontology/presenter'
p2033
(lp2034
S'presenter'
p2035
asS'http://dbpedia.org/ontology/president'
p2036
(lp2037
S'president'
p2038
asVhttp://dbpedia.org/property/iso6393Code
p2039
(lp2040
S'iso 639-3'
p2041
aS'ISO 639-3 code'
p2042
asS'http://dbpedia.org/property/guests'
p2043
(lp2044
S'Guests'
p2045
asVhttp://dbpedia.org/ontology/follows
p2046
g110
sS'http://dbpedia.org/property/former'
p2047
(lp2048
S'Former'
p2049
asS'http://dbpedia.org/property/conflict'
p2050
(lp2051
S'conflict'
p2052
asS'http://dbpedia.org/property/aliases'
p2053
(lp2054
S'aliases'
p2055
asS'http://dbpedia.org/ontology/relative'
p2056
(lp2057
S'relative'
p2058
asS'http://dbpedia.org/property/statleague'
p2059
(lp2060
S'statleague'
p2061
asS'http://dbpedia.org/property/junPrecipitationMm'
p2062
(lp2063
S'Jun precipitation mm'
p2064
asS'http://dbpedia.org/property/fightingOutOf'
p2065
(lp2066
S'fighting out of'
p2067
asS'http://dbpedia.org/property/supervillain'
p2068
(lp2069
S'Supervillain'
p2070
asVhttp://dbpedia.org/ontology/license
p2071
(lp2072
S'licence'
p2073
aS'content licence'
p2074
aS'license'
p2075
aS'content license'
p2076
asS'http://dbpedia.org/ontology/serviceStartYear'
p2077
(lp2078
S'service start year'
p2079
asS'http://dbpedia.org/property/areaMetroSqMi'
p2080
(lp2081
S'area metro sq mi'
p2082
asS'http://dbpedia.org/ontology/nationalTeam'
p2083
(lp2084
S'national team'
p2085
asS'http://dbpedia.org/ontology/debutTeam'
p2086
(lp2087
S'debut team'
p2088
asS'http://dbpedia.org/property/lyrics'
p2089
(lp2090
S'lyrics'
p2091
asS'http://dbpedia.org/property/gini'
p2092
(lp2093
S'Gini'
p2094
asS'http://dbpedia.org/property/place'
p2095
(lp2096
S'place'
p2097
asS'http://dbpedia.org/property/commandStructure'
p2098
(lp2099
S'command structure'
p2100
asVhttp://dbpedia.org/ontology/highwaySystem
p2101
(lp2102
S'road type'
p2103
aS'routes system'
p2104
aS'transport network'
p2105
aS'highway system'
p2106
aS'system of routes'
p2107
aS'part of network'
p2108
aS'network of routes'
p2109
asS'http://dbpedia.org/property/agency'
p2110
(lp2111
S'agency'
p2112
asVhttp://dbpedia.org/property/landingDate
p2113
g37
sVhttp://dbpedia.org/property/cinematography
p2114
(lp2115
S'director of photography'
p2116
aS'cinematographer'
p2117
asS'http://dbpedia.org/property/restingplace'
p2118
(lp2119
S'restingplace'
p2120
asS'http://dbpedia.org/ontology/MeanOfTransportation/length'
p2121
(lp2122
S'length (mm)'
p2123
asS'http://dbpedia.org/property/countryOfProduction'
p2124
(lp2125
S'country of production'
p2126
asS'http://dbpedia.org/property/combatant'
p2127
(lp2128
S'combatant'
p2129
asS'http://dbpedia.org/property/originalteam'
p2130
(lp2131
S'originalteam'
p2132
asS'http://dbpedia.org/ontology/height'
p2133
(lp2134
S'height ()'
p2135
asS'http://dbpedia.org/property/decHumidity'
p2136
(lp2137
S'Dec humidity'
p2138
asS'http://dbpedia.org/property/worldPlaceQ'
p2139
(lp2140
S'world place Q'
p2141
asS'http://dbpedia.org/property/worldPlaceF'
p2142
(lp2143
S'world place F'
p2144
asS'http://dbpedia.org/property/febHumidity'
p2145
(lp2146
S'Feb humidity'
p2147
asS'http://dbpedia.org/property/patternSo'
p2148
(lp2149
S'pattern so'
p2150
asS'http://dbpedia.org/ontology/channel'
p2151
(lp2152
S'channel'
p2153
asS'http://dbpedia.org/ontology/broadcastArea'
p2154
(lp2155
S'broadcast area'
p2156
asS'http://dbpedia.org/property/salign'
p2157
(lp2158
S'salign'
p2159
asVhttp://dbpedia.org/property/address
p2160
(lp2161
S'street address'
p2162
aS'located at street address'
p2163
aS'address'
p2164
asS'http://dbpedia.org/property/deathplace'
p2165
(lp2166
S'deathplace'
p2167
asVhttp://dbpedia.org/property/musicBy
p2168
g1007
sS'http://dbpedia.org/property/seatingCapacity'
p2169
(lp2170
S'seating capacity'
p2171
asS'http://dbpedia.org/property/write'
p2172
(lp2173
S'write'
p2174
asVhttp://dbpedia.org/property/child
p2175
(lp2176
S'sons'
p2177
aS'has son'
p2178
aS'daughter'
p2179
aS'has kid'
p2180
aS'has kids'
p2181
aS'has daughter'
p2182
aS'kids'
p2183
aS'has sons'
p2184
aS'son'
p2185
aS'has children'
p2186
aS'has daughters'
p2187
aS'has child'
p2188
aS'child'
p2189
aS'children'
p2190
aS'daughters'
p2191
aS'kid'
p2192
asVhttp://dbpedia.org/ontology/occupation
p2193
g315
sS'http://dbpedia.org/property/hp'
p2194
(lp2195
S'hp'
p2196
asVhttp://dbpedia.org/ontology/compressionRatio
p2197
(lp2198
S'compression ratio'
p2199
asS'http://dbpedia.org/property/sourceLocation'
p2200
(lp2201
S'source location'
p2202
asS'http://dbpedia.org/property/story'
p2203
(lp2204
S'story'
p2205
asS'http://dbpedia.org/property/rd1Team'
p2206
(lp2207
S'RD1-team'
p2208
asS'http://dbpedia.org/property/residencePlace'
p2209
(lp2210
S'residence place'
p2211
asS'http://dbpedia.org/ontology/termPeriod'
p2212
(lp2213
S'term period'
p2214
asS'http://dbpedia.org/ontology/effectiveRadiatedPower'
p2215
(lp2216
S'effectiveRadiatedPower (W)'
p2217
asS'http://dbpedia.org/property/areaRank'
p2218
(lp2219
S'area rank'
p2220
asS'http://dbpedia.org/ontology/wikiPageLength'
p2221
(lp2222
S'page length (characters) of wiki page'
p2223
asVhttp://dbpedia.org/ontology/ndlId
p2224
(lp2225
S'NDLA ID'
p2226
aS'NDL Authorities'
p2227
aS'NDLA identifier'
p2228
aS'ndl'
p2229
aS'NDL identifier'
p2230
aS'NDLAuth ID'
p2231
aS'NDL ID'
p2232
asS'http://dbpedia.org/property/empire'
p2233
(lp2234
S'empire'
p2235
asS'http://dbpedia.org/property/relations'
p2236
(lp2237
S'relations'
p2238
asVhttp://dbpedia.org/ontology/releaseDate
p2239
(lp2240
S'year of publication'
p2241
aS'time of publication'
p2242
aS'initial release'
p2243
aS'publication'
p2244
aS'publication time'
p2245
aS'released'
p2246
aS'date of publication'
p2247
aS'date published'
p2248
aS'published'
p2249
aS'date released'
p2250
aS'dop'
p2251
aS'date of release'
p2252
aS'release date'
p2253
aS'publication date'
p2254
asS'http://dbpedia.org/property/start'
p2255
(lp2256
S'start'
p2257
asVhttp://dbpedia.org/ontology/residence
p2258
(lp2259
S'official residence'
p2260
asS'http://dbpedia.org/property/leaderName'
p2261
(lp2262
S'leader name'
p2263
asVhttp://dbpedia.org/property/launchDate
p2264
(lp2265
S'spacecraft launch date'
p2266
aS'launch time'
p2267
aS'date of spacecraft launch'
p2268
aS'launch date'
p2269
aS'time of spacecraft launch'
p2270
asS'http://dbpedia.org/property/partners'
p2271
(lp2272
S'partners'
p2273
asVhttp://dbpedia.org/property/compressionRatio
p2274
g2198
sS'http://dbpedia.org/property/countriesAffected'
p2275
(lp2276
S'countries affected'
p2277
asS'http://dbpedia.org/property/currentclub'
p2278
(lp2279
S'currentclub'
p2280
asS'http://dbpedia.org/property/metroArea'
p2281
(lp2282
S'metro area'
p2283
asS'http://dbpedia.org/property/titleLeader'
p2284
(lp2285
S'title leader'
p2286
asS'http://dbpedia.org/property/alter'
p2287
(lp2288
S'alter'
p2289
asS'http://dbpedia.org/ontology/class'
p2290
(lp2291
S'class'
p2292
asS'http://dbpedia.org/property/constructionCost'
p2293
(lp2294
S'construction cost'
p2295
asVhttp://dbpedia.org/property/currency
p2296
(lp2297
S'currency'
p2298
aS'used money'
p2299
aS'base currency'
p2300
asS'http://dbpedia.org/property/live'
p2301
(lp2302
S'Live'
p2303
asVhttp://dbpedia.org/ontology/fuelSystem
p2304
(lp2305
S'fuel system'
p2306
asS'http://dbpedia.org/ontology/countryWithFirstSatellite'
p2307
(lp2308
S'country with first satellite'
p2309
asVhttp://dbpedia.org/property/deathDate
p2310
(lp2311
S'death'
p2312
aS'date of death'
p2313
aS'year of death'
p2314
aS'died on'
p2315
aS'dead'
p2316
aS'DOD'
p2317
aS'date of the end'
p2318
aS'deathdate'
p2319
aS'death date'
p2320
asS'http://dbpedia.org/property/countryOfOrigin'
p2321
(lp2322
S'country of Origin'
p2323
asVhttp://dbpedia.org/ontology/isbn
p2324
(lp2325
S'International Standard Book Number-10'
p2326
aS'ISBN-10'
p2327
aS'isbn-10'
p2328
asVhttp://dbpedia.org/property/genre
p2329
(lp2330
S'kind of music'
p2331
aS'literary genre'
p2332
aS'music genre'
p2333
aS'film genre'
p2334
aS'genre'
p2335
aS'artistic genre'
p2336
asS'http://dbpedia.org/property/significantother'
p2337
(lp2338
S'significantother'
p2339
asS'http://dbpedia.org/property/decLowC'
p2340
(lp2341
S'Dec low C'
p2342
asS'http://dbpedia.org/property/label'
p2343
(lp2344
S'label'
p2345
asS'http://dbpedia.org/ontology/wheelbase'
p2346
(lp2347
S'wheelbase ()'
p2348
asS'http://dbpedia.org/property/honorificSuffix'
p2349
(lp2350
S'honorific-suffix'
p2351
asS'http://dbpedia.org/property/locationPlace'
p2352
(lp2353
S'location place'
p2354
asS'http://dbpedia.org/property/throws'
p2355
(lp2356
S'throws'
p2357
asS'http://dbpedia.org/property/report'
p2358
(lp2359
S'report'
p2360
asS'http://dbpedia.org/property/runnersUp'
p2361
(lp2362
S'runners up'
p2363
asS'http://dbpedia.org/ontology/populationMetro'
p2364
(lp2365
S'population metro'
p2366
asS'http://dbpedia.org/property/mvp'
p2367
(lp2368
S'MVP'
p2369
asS'http://dbpedia.org/ontology/builder'
p2370
(lp2371
S'builder'
p2372
asS'http://dbpedia.org/property/firstComic'
p2373
(lp2374
S'first comic'
p2375
asS'http://dbpedia.org/property/topScorer'
p2376
(lp2377
S'top scorer'
p2378
asS'http://dbpedia.org/ontology/operator'
p2379
(lp2380
S'operator'
p2381
asS'http://dbpedia.org/property/ruSevensnationalteam'
p2382
(lp2383
S'ru sevensnationalteam'
p2384
asS'http://dbpedia.org/property/populationBlank1Title'
p2385
(lp2386
S'population blank1 title'
p2387
asS'http://dbpedia.org/ontology/openingYear'
p2388
(lp2389
S'opening year'
p2390
asS'http://dbpedia.org/property/registered'
p2391
(lp2392
S'registered'
p2393
asS'http://dbpedia.org/property/notableWorks'
p2394
(lp2395
S'notable works'
p2396
asS'http://dbpedia.org/ontology/nonFictionSubject'
p2397
(lp2398
S'non-fiction subject'
p2399
asS'http://dbpedia.org/property/currentChampion'
p2400
(lp2401
S'current champion'
p2402
asS'http://dbpedia.org/property/censusEstimateYr'
p2403
(lp2404
S'census estimate yr'
p2405
asS'http://dbpedia.org/property/citizens'
p2406
(lp2407
S'citizens'
p2408
asS'http://dbpedia.org/property/south'
p2409
(lp2410
S'South'
p2411
asS'http://dbpedia.org/property/latD'
p2412
(lp2413
S'lat d'
p2414
asVhttp://dbpedia.org/ontology/cpu
p2415
(lp2416
S'CPU'
p2417
aS'central processing unit'
p2418
asS'http://dbpedia.org/property/imageTitle'
p2419
(lp2420
S'image title '
p2421
asS'http://dbpedia.org/property/latM'
p2422
(lp2423
S'lat m'
p2424
asS'http://dbpedia.org/property/latS'
p2425
(lp2426
S'lat s'
p2427
asS'http://dbpedia.org/property/publisherEn'
p2428
(lp2429
S'publisher en'
p2430
asS'http://dbpedia.org/property/julSun'
p2431
(lp2432
S'Jul sun'
p2433
asS'http://dbpedia.org/property/imagesize'
p2434
(lp2435
S'imagesize'
p2436
asS'http://dbpedia.org/property/decRecordLowC'
p2437
(lp2438
S'Dec record low C'
p2439
asS'http://dbpedia.org/property/latd'
p2440
(lp2441
S'latd'
p2442
asS'http://dbpedia.org/property/affected'
p2443
(lp2444
S'affected'
p2445
asS'http://dbpedia.org/property/latm'
p2446
(lp2447
S'latm'
p2448
asVhttp://dbpedia.org/property/education
p2449
(lp2450
S'school attended'
p2451
aS'studied at'
p2452
aS'graduated from'
p2453
aS'alma mater'
p2454
aS'alumnus of'
p2455
aS'alumni of'
p2456
aS'university attended'
p2457
aS'edu'
p2458
aS'alumna of'
p2459
aS'educated at'
p2460
aS'education'
p2461
aS'graduate of'
p2462
aS'college attended'
p2463
asVhttp://dbpedia.org/property/isbn
p2464
g2325
sVhttp://dbpedia.org/property/sex
p2465
(lp2466
S'woman'
p2467
aS'gender'
p2468
aS'intersex'
p2469
aS'sex'
p2470
aS'biological sex'
p2471
aS'gender expression'
p2472
aS'sex or gender'
p2473
aS'female'
p2474
aS'male'
p2475
aS'gender identity'
p2476
aS'man'
p2477
asS'http://dbpedia.org/property/source'
p2478
(lp2479
S'source '
p2480
asS'http://dbpedia.org/property/see'
p2481
(lp2482
S'see'
p2483
asVhttp://dbpedia.org/ontology/education
p2484
g2450
sVhttp://dbpedia.org/ontology/absoluteMagnitude
p2485
(lp2486
S'absolute magnitude'
p2487
asS'http://dbpedia.org/ontology/stationStructure'
p2488
(lp2489
S'station structure'
p2490
asS'http://dbpedia.org/property/open'
p2491
(lp2492
S'open'
p2493
asVhttp://dbpedia.org/property/ideology
p2494
(lp2495
S'ideology'
p2496
aS'political ideology'
p2497
asS'http://dbpedia.org/property/observedby'
p2498
(lp2499
S'observedby'
p2500
asS'http://dbpedia.org/property/julPrecipitationMm'
p2501
(lp2502
S'Jul precipitation mm'
p2503
asS'http://dbpedia.org/property/noimage'
p2504
(lp2505
S'noimage'
p2506
asS'http://dbpedia.org/property/clearance'
p2507
(lp2508
S'clearance'
p2509
asVhttp://dbpedia.org/ontology/ethnicity
p2510
(lp2511
S'race'
p2512
aS'ethnic group'
p2513
aS'ethnicity'
p2514
asS'http://dbpedia.org/property/gdpNominalPerCapitaRank'
p2515
(lp2516
S'GDP nominal per capita rank'
p2517
asS'http://dbpedia.org/property/novPrecipitationMm'
p2518
(lp2519
S'Nov precipitation mm'
p2520
asS'http://dbpedia.org/property/locationCity'
p2521
(lp2522
S'location city'
p2523
asS'http://dbpedia.org/ontology/twinTown'
p2524
(lp2525
S'twin city'
p2526
asS'http://dbpedia.org/property/motto'
p2527
(lp2528
S'Motto'
p2529
asS'http://dbpedia.org/ontology/populationDensity'
p2530
(lp2531
S'population density (/sqkm)'
p2532
asS'http://dbpedia.org/property/rainfall'
p2533
(lp2534
S'rainfall'
p2535
asS'http://dbpedia.org/property/2014Headquarters'
p2536
(lp2537
S'2014\nheadquarters'
p2538
asS'http://dbpedia.org/property/footer'
p2539
(lp2540
S'footer'
p2541
asVhttp://dbpedia.org/ontology/director
p2542
g1072
sS'http://dbpedia.org/property/aprLowC'
p2543
(lp2544
S'Apr low C'
p2545
asS'http://dbpedia.org/ontology/product'
p2546
(lp2547
S'product'
p2548
asS'http://dbpedia.org/property/listEpisodes'
p2549
(lp2550
S'list episodes'
p2551
asS'http://dbpedia.org/property/producers'
p2552
(lp2553
S'producers'
p2554
asS'http://dbpedia.org/property/netIncome'
p2555
(lp2556
S'net income'
p2557
asS'http://dbpedia.org/property/after'
p2558
(lp2559
S'after'
p2560
asS'http://dbpedia.org/ontology/place'
p2561
(lp2562
S'place of military conflict'
p2563
asS'http://dbpedia.org/ontology/deathYear'
p2564
(lp2565
S'death year'
p2566
asS'http://dbpedia.org/property/mayRecordLowC'
p2567
(lp2568
S'May record low C'
p2569
asVhttp://dbpedia.org/ontology/developer
p2570
(lp2571
S'developed by'
p2572
aS'developer'
p2573
asS'http://dbpedia.org/property/parking'
p2574
(lp2575
S'parking'
p2576
asS'http://dbpedia.org/property/novels'
p2577
(lp2578
S'novels'
p2579
asS'http://dbpedia.org/ontology/dissolutionYear'
p2580
(lp2581
S'dissolution year'
p2582
asS'http://dbpedia.org/property/distributors'
p2583
(lp2584
S'distributors'
p2585
asVhttp://dbpedia.org/property/currencyCode
p2586
(lp2587
S'ISO 4217 code'
p2588
asS'http://dbpedia.org/property/nationofbirth'
p2589
(lp2590
S'nationofbirth'
p2591
asS'http://dbpedia.org/property/roadhr'
p2592
(lp2593
S'RoadHR'
p2594
asS'http://dbpedia.org/property/numEpisodes'
p2595
(lp2596
S'num episodes'
p2597
asS'http://dbpedia.org/property/photos'
p2598
(lp2599
S'photos'
p2600
asS'http://dbpedia.org/property/debutstadium'
p2601
(lp2602
S'debutstadium'
p2603
asS'http://dbpedia.org/property/nearestTownOrCity'
p2604
(lp2605
S'nearest town or city'
p2606
asVhttp://dbpedia.org/property/meshId
p2607
(lp2608
S'MeSH ID'
p2609
aS'MeSH Unique ID'
p2610
asS'http://dbpedia.org/property/stat2label'
p2611
(lp2612
S'stat2label'
p2613
asS'http://dbpedia.org/ontology/twinCountry'
p2614
(lp2615
S'twin country'
p2616
asS'http://dbpedia.org/property/nextsupcity'
p2617
(lp2618
S'nextsupcity'
p2619
asS'http://dbpedia.org/property/laterwork'
p2620
(lp2621
S'laterwork'
p2622
asS'http://dbpedia.org/ontology/previousWork'
p2623
(lp2624
S'previous work'
p2625
asS'http://dbpedia.org/property/primeminister'
p2626
(lp2627
S'primeminister'
p2628
asS'http://dbpedia.org/property/direction'
p2629
(lp2630
S'direction'
p2631
asS'http://dbpedia.org/ontology/serviceEndYear'
p2632
(lp2633
S'service end year'
p2634
asS'http://dbpedia.org/ontology/Work/runtime'
p2635
(lp2636
S'runtime (m)'
p2637
asS'http://dbpedia.org/property/legaljuris'
p2638
(lp2639
S'legaljuris'
p2640
asS'http://dbpedia.org/ontology/Stream/watershed'
p2641
(lp2642
S'watershed (km2)'
p2643
asS'http://dbpedia.org/property/parentCompany'
p2644
(lp2645
S'parent company'
p2646
asS'http://dbpedia.org/property/landingPoints'
p2647
(lp2648
S'landing points'
p2649
asS'http://dbpedia.org/property/primaryUser'
p2650
(lp2651
S'primary user'
p2652
asS'http://dbpedia.org/property/sepHumidity'
p2653
(lp2654
S'Sep humidity'
p2655
asS'http://dbpedia.org/property/district'
p2656
(lp2657
S'district'
p2658
asS'http://dbpedia.org/ontology/mouthMountain'
p2659
(lp2660
S'mouth mountain'
p2661
asS'http://dbpedia.org/property/sourceCountry'
p2662
(lp2663
S'source country'
p2664
asS'http://dbpedia.org/property/storeLocations'
p2665
(lp2666
S'store locations'
p2667
asS'http://dbpedia.org/property/mouthName'
p2668
(lp2669
S'mouth name'
p2670
asS'http://dbpedia.org/property/voy'
p2671
(lp2672
S'voy'
p2673
asS'http://dbpedia.org/property/exImage'
p2674
(lp2675
S'ex image'
p2676
asS'http://dbpedia.org/property/second'
p2677
(lp2678
S'Second'
p2679
asS'http://dbpedia.org/property/governmentType'
p2680
(lp2681
S'government type'
p2682
asS'http://dbpedia.org/ontology/hometown'
p2683
(lp2684
S'home town'
p2685
asS'http://dbpedia.org/property/synagogue'
p2686
(lp2687
S'synagogue'
p2688
asS'http://dbpedia.org/property/builders'
p2689
(lp2690
S'Builders'
p2691
asVhttp://dbpedia.org/property/license
p2692
g2072
sS'http://dbpedia.org/property/blank3Name'
p2693
(lp2694
S'blank3 name'
p2695
asS'http://dbpedia.org/property/catchment'
p2696
(lp2697
S'catchment'
p2698
asVhttp://dbpedia.org/ontology/taoiseach
p2699
g884
sS'http://dbpedia.org/ontology/routeStart'
p2700
(lp2701
S'route start'
p2702
asS'http://dbpedia.org/property/colours'
p2703
(lp2704
S'colours'
p2705
asS'http://dbpedia.org/property/patronage'
p2706
(lp2707
S'patronage'
p2708
asS'http://dbpedia.org/property/secondaryHubs'
p2709
(lp2710
S'secondary hubs'
p2711
asS'http://dbpedia.org/property/directionA'
p2712
(lp2713
S'direction a'
p2714
asS'http://dbpedia.org/property/rd1t4Loc'
p2715
(lp2716
S'RD1T4-loc'
p2717
asS'http://dbpedia.org/property/typeHouse'
p2718
(lp2719
S'type house'
p2720
asS'http://dbpedia.org/property/countryRepresented'
p2721
(lp2722
S'country represented'
p2723
asS'http://dbpedia.org/property/patternLa'
p2724
(lp2725
S'pattern la'
p2726
asS'http://dbpedia.org/ontology/internationalAffiliation'
p2727
(lp2728
S'international affiliation'
p2729
asS'http://dbpedia.org/property/janLowC'
p2730
(lp2731
S'Jan low C'
p2732
asS'http://dbpedia.org/property/hdiChange'
p2733
(lp2734
S'HDI change'
p2735
asS'http://dbpedia.org/property/countrgy'
p2736
(lp2737
S'countrgy'
p2738
asS'http://dbpedia.org/property/twin'
p2739
(lp2740
S'twin'
p2741
asS'http://dbpedia.org/property/regions'
p2742
(lp2743
S'regions'
p2744
asS'http://dbpedia.org/property/id'
p2745
(lp2746
S'id'
p2747
asS'http://dbpedia.org/property/resides'
p2748
(lp2749
S'resides'
p2750
asS'http://dbpedia.org/ontology/championInMixedDouble'
p2751
(lp2752
S'champion in mixed double'
p2753
asVhttp://dbpedia.org/ontology/nisCode
p2754
(lp2755
S'NIS/INS code'
p2756
asS'http://dbpedia.org/property/cap'
p2757
(lp2758
S'cap'
p2759
asS'http://dbpedia.org/property/cat'
p2760
(lp2761
S'cat'
p2762
asS'http://dbpedia.org/property/aux'
p2763
(lp2764
S'Aux'
p2765
asS'http://dbpedia.org/property/defunct'
p2766
(lp2767
S'defunct'
p2768
asS'http://dbpedia.org/ontology/MeanOfTransportation/weight'
p2769
(lp2770
S'weight (kg)'
p2771
asS'http://dbpedia.org/property/used'
p2772
(lp2773
S'used'
p2774
asS'http://dbpedia.org/property/shipOwner'
p2775
(lp2776
S'Ship owner'
p2777
asS'http://dbpedia.org/property/fedgov'
p2778
(lp2779
S'fedgov'
p2780
asS'http://dbpedia.org/property/scope'
p2781
(lp2782
S'scope'
p2783
asS'http://dbpedia.org/ontology/musicComposer'
p2784
(lp2785
S'music composer'
p2786
asS'http://dbpedia.org/property/imageCaption'
p2787
(lp2788
S'image caption'
p2789
asS'http://dbpedia.org/property/populationDensityRank'
p2790
(lp2791
S'population density rank'
p2792
asS'http://dbpedia.org/property/adminCenter'
p2793
(lp2794
S'admin center'
p2795
asS'http://dbpedia.org/property/workInstitutions'
p2796
(lp2797
S'work institutions'
p2798
asS'http://dbpedia.org/property/mapsize'
p2799
(lp2800
S'mapsize'
p2801
asVhttp://dbpedia.org/ontology/constellation
p2802
(lp2803
S'constellation'
p2804
asS'http://dbpedia.org/property/season'
p2805
(lp2806
S'season'
p2807
asS'http://dbpedia.org/property/julHighC'
p2808
(lp2809
S'Jul high C'
p2810
asVhttp://dbpedia.org/property/absoluteMagnitude
p2811
g2486
sS'http://dbpedia.org/property/locationSigned'
p2812
(lp2813
S'location signed'
p2814
asVhttp://dbpedia.org/property/foundingDate
p2815
(lp2816
S'construction date'
p2817
aS'date commenced'
p2818
aS'written on date'
p2819
aS'date founded'
p2820
aS'founded'
p2821
aS'year created'
p2822
aS'establishment date'
p2823
aS'time of inception'
p2824
aS'formation date'
p2825
aS'constructed'
p2826
aS'year founded'
p2827
aS'established'
p2828
aS'date created'
p2829
aS'formed on date'
p2830
aS'inititated'
p2831
aS'date constructed'
p2832
aS'foundation/creation date'
p2833
aS'date of creation'
p2834
aS'year commenced'
p2835
aS'year established'
p2836
aS'date formed'
p2837
aS'date of foundation or creation'
p2838
aS'date of establishment'
p2839
aS'foundation'
p2840
aS'date of foundation'
p2841
aS'year incorporated'
p2842
aS'created on date'
p2843
aS'dedication date'
p2844
aS'formed in'
p2845
aS'established on date'
p2846
aS'founding date'
p2847
aS'commencement date'
p2848
aS'inception'
p2849
aS'time of foundation or creation'
p2850
aS'year written'
p2851
aS'date incorporated'
p2852
aS'formed at'
p2853
aS'date of incorporation'
p2854
aS'created'
p2855
aS'creation date'
p2856
aS'commenced on date'
p2857
aS'incorporation date'
p2858
aS'founded on date'
p2859
aS'date of commencement'
p2860
aS'foundation date'
p2861
aS'incorporated'
p2862
aS'formation'
p2863
aS'date of founding'
p2864
aS'incorporated on date'
p2865
asS'http://dbpedia.org/property/appointer'
p2866
(lp2867
S'appointer'
p2868
asS'http://dbpedia.org/property/style'
p2869
(lp2870
S'style'
p2871
asS'http://dbpedia.org/property/appointed'
p2872
(lp2873
S'appointed'
p2874
asVhttp://dbpedia.org/ontology/homeport
p2875
(lp2876
S'homeport'
p2877
aS'home port'
p2878
asS'http://dbpedia.org/property/supportingCharTeam'
p2879
(lp2880
S'supporting char team'
p2881
asS'http://dbpedia.org/property/runtime'
p2882
(lp2883
S'runtime'
p2884
asS'http://dbpedia.org/ontology/strength'
p2885
(lp2886
S'strength'
p2887
asS'http://dbpedia.org/property/tracks'
p2888
(lp2889
S'Tracks'
p2890
asS'http://dbpedia.org/property/filmed'
p2891
(lp2892
S'filmed'
p2893
asS'http://dbpedia.org/property/col2width'
p2894
(lp2895
S'col2width'
p2896
asS'http://dbpedia.org/ontology/governingBody'
p2897
(lp2898
S'governing body'
p2899
asS'http://dbpedia.org/property/rd5t1Loc'
p2900
(lp2901
S'RD5T1-loc'
p2902
asS'http://dbpedia.org/property/chief1Name'
p2903
(lp2904
S'chief1 name'
p2905
asS'http://dbpedia.org/property/placeOfOrigin'
p2906
(lp2907
S'place of origin'
p2908
asS'http://dbpedia.org/property/debuts'
p2909
(lp2910
S'debuts'
p2911
asS'http://dbpedia.org/property/transCoverage'
p2912
(lp2913
S'trans coverage'
p2914
asVhttp://dbpedia.org/ontology/inflow
p2915
g564
sS'http://dbpedia.org/property/shipFlag'
p2916
(lp2917
S'Ship flag'
p2918
asVhttp://dbpedia.org/ontology/icaoLocationIdentifier
p2919
(lp2920
S'ICAO airport code'
p2921
aS'International Civil Aviation Organization airport code'
p2922
aS'ICAO aerodrome code'
p2923
aS'ICAO airfield code'
p2924
asS'http://dbpedia.org/ontology/notes'
p2925
(lp2926
S'notes'
p2927
asS'http://dbpedia.org/property/body'
p2928
(lp2929
S'body'
p2930
asS'http://dbpedia.org/property/subsid'
p2931
(lp2932
S'subsid'
p2933
asVhttp://dbpedia.org/ontology/editor
p2934
(lp2935
S'edited by'
p2936
aS'compiled by'
p2937
aS'editor'
p2938
aS'compiler'
p2939
asVhttp://dbpedia.org/property/eyeColor
p2940
g1542
sS'http://dbpedia.org/property/collapsed'
p2941
(lp2942
S'collapsed'
p2943
asS'http://dbpedia.org/property/yearRainMm'
p2944
(lp2945
S'year rain mm'
p2946
asS'http://dbpedia.org/ontology/extinctionDate'
p2947
(lp2948
S'extinction date'
p2949
asS'http://dbpedia.org/ontology/bodyDiscovered'
p2950
(lp2951
S'body discovered'
p2952
asS'http://dbpedia.org/property/format'
p2953
(lp2954
S'format'
p2955
asVhttp://dbpedia.org/resource/Cleopatra_V_of_Egypt
p2956
(lp2957
S'Cleopatra V of Egypt'
p2958
asS'http://dbpedia.org/property/employees'
p2959
(lp2960
S'employees'
p2961
asVhttp://dbpedia.org/ontology/orcidId
p2962
(lp2963
S'ORCID iD'
p2964
aS'ORCID'
p2965
aS'ORC ID'
p2966
aS'Open Research Contributor ID'
p2967
asS'http://dbpedia.org/property/eventEnd'
p2968
(lp2969
S'event end'
p2970
asS'http://dbpedia.org/property/cover'
p2971
(lp2972
S'Cover'
p2973
asS'http://dbpedia.org/ontology/maximumElevation'
p2974
(lp2975
S'maximum elevation ()'
p2976
asS'http://dbpedia.org/property/tpb'
p2977
(lp2978
S'TPB'
p2979
asVhttp://dbpedia.org/property/rkdArtistsId
p2980
(lp2981
S'RKDartists ID'
p2982
asS'http://dbpedia.org/property/airdate'
p2983
(lp2984
S'airdate'
p2985
asS'http://dbpedia.org/property/bodyDiscovered'
p2986
(lp2987
S'body discovered'
p2988
asS'http://dbpedia.org/property/judges'
p2989
(lp2990
S'judges'
p2991
asS'http://dbpedia.org/property/currentLocation'
p2992
(lp2993
S'current location'
p2994
asVhttp://dbpedia.org/ontology/employer
p2995
g361
sS'http://dbpedia.org/property/coordinatesRegion'
p2996
(lp2997
S'coordinates region'
p2998
asS'http://dbpedia.org/property/julPrecipitationDays'
p2999
(lp3000
S'Jul precipitation days'
p3001
asS'http://dbpedia.org/ontology/wineRegion'
p3002
(lp3003
S'wine region'
p3004
asS'http://dbpedia.org/property/individualChampionTeam'
p3005
(lp3006
S'individual champion team'
p3007
asS'http://dbpedia.org/property/hatchPlace'
p3008
(lp3009
S'hatch place'
p3010
asS'http://dbpedia.org/property/startyr'
p3011
(lp3012
S'startyr'
p3013
asS'http://dbpedia.org/ontology/format'
p3014
(lp3015
S'format (object)'
p3016
asVhttp://dbpedia.org/ontology/currencyCode
p3017
g2587
sS'http://dbpedia.org/property/continents'
p3018
(lp3019
S'continents'
p3020
asVhttp://dbpedia.org/ontology/settlement
p3021
(lp3022
S'is in the local government area of'
p3023
aS'is in the voivodeship of'
p3024
aS'based in'
p3025
aS'is in the state of'
p3026
aS'Indian reservation'
p3027
aS'is in the principal area of'
p3028
aS'is in the region of'
p3029
aS'is in the Indian reservation of'
p3030
aS'is in the district of'
p3031
aS'in'
p3032
aS'is in the shire of'
p3033
aS'in administrative unit'
p3034
aS'is in the administrative region of'
p3035
aS'city'
p3036
aS'is in the territory of'
p3037
aS'happens in'
p3038
aS'locality'
p3039
aS'is in the Indian reserve of'
p3040
aS'is in the administrative unit'
p3041
aS'is in the municipality of'
p3042
aS'is in the parish of'
p3043
aS'state'
p3044
aS'is in the department of'
p3045
aS'location (administrative territorial entity)'
p3046
aS'is in the borough of'
p3047
aS'is in the county of'
p3048
aS'is in the village of'
p3049
aS'is in the ward of'
p3050
aS'is in the commune of'
p3051
aS'located in the administrative unit'
p3052
aS'located in administrative unit'
p3053
aS'located in the administrative territorial entity'
p3054
aS'is in the rural city of'
p3055
aS'is in the city of'
p3056
aS'town'
p3057
aS'in the administrative unit'
p3058
aS'administrative territorial entity'
p3059
aS'is in the settlement of'
p3060
aS'is in the town of'
p3061
aS'is in administrative unit'
p3062
aS'is in the province of'
p3063
aS'is in the prefecture of'
p3064
aS'is located in'
p3065
asS'http://dbpedia.org/property/novLowC'
p3066
(lp3067
S'Nov low C'
p3068
asVhttp://dbpedia.org/ontology/selibrId
p3069
g982
sS'http://dbpedia.org/property/capitalExile'
p3070
(lp3071
S'capital exile'
p3072
asS'http://dbpedia.org/property/yearsactive'
p3073
(lp3074
S'yearsactive'
p3075
asS'http://dbpedia.org/property/battles'
p3076
(lp3077
S'battles'
p3078
asS'http://dbpedia.org/property/museum'
p3079
(lp3080
S'museum'
p3081
asS'http://dbpedia.org/property/nat'
p3082
(lp3083
S'nat'
p3084
asS'http://dbpedia.org/property/related'
p3085
(lp3086
S'related'
p3087
asS'http://dbpedia.org/ontology/distributingCompany'
p3088
(lp3089
S'distributing company'
p3090
asS'http://dbpedia.org/property/production'
p3091
(lp3092
S'production'
p3093
asS'http://dbpedia.org/property/opened'
p3094
(lp3095
S'opened'
p3096
asS'http://dbpedia.org/property/pushpinMapCaption'
p3097
(lp3098
S'pushpin map caption'
p3099
asS'http://dbpedia.org/property/gender'
p3100
(lp3101
S'gender'
p3102
asS'http://dbpedia.org/property/mayLowC'
p3103
(lp3104
S'May low C'
p3105
asS'http://dbpedia.org/property/stat2value'
p3106
(lp3107
S'stat2value'
p3108
asVhttp://dbpedia.org/property/fuelSystem
p3109
g2305
sVhttp://dbpedia.org/property/discoverer
p3110
g992
sS'http://dbpedia.org/property/schoollocations'
p3111
(lp3112
S'schoollocations'
p3113
asS'http://dbpedia.org/ontology/river'
p3114
(lp3115
S'river'
p3116
asS'http://dbpedia.org/property/chairman'
p3117
(lp3118
S'chairman'
p3119
asVhttp://dbpedia.org/property/discovered
p3120
g976
sS'http://dbpedia.org/property/aprRecordHighC'
p3121
(lp3122
S'Apr record high C'
p3123
asS'http://dbpedia.org/property/rd2t3Loc'
p3124
(lp3125
S'RD2T3-loc'
p3126
asVhttp://dbpedia.org/property/placeOfBurial
p3127
(lp3128
S'buried in'
p3129
aS'burial place'
p3130
aS'grave at'
p3131
aS'place of grave'
p3132
aS'tomb'
p3133
aS'place of burial'
p3134
aS'location of burial'
p3135
aS'resting place'
p3136
asS'http://dbpedia.org/property/border'
p3137
(lp3138
S'border'
p3139
asVhttp://dbpedia.org/property/coden
p3140
g1912
sS'http://dbpedia.org/property/rd1t5Loc'
p3141
(lp3142
S'RD1T5-loc'
p3143
asS'http://dbpedia.org/property/operator'
p3144
(lp3145
S'operator'
p3146
asS'http://dbpedia.org/property/sepHighC'
p3147
(lp3148
S'Sep high C'
p3149
asS'http://dbpedia.org/property/mayPrecipitationDays'
p3150
(lp3151
S'May precipitation days'
p3152
asS'http://dbpedia.org/property/nationalOffice'
p3153
(lp3154
S'national office'
p3155
asS'http://dbpedia.org/property/chief3Name'
p3156
(lp3157
S'chief3 name'
p3158
asVhttp://dbpedia.org/property/endDate
p3159
(lp3160
S'end date'
p3161
aS'endtime'
p3162
aS'enddate'
p3163
aS'left office'
p3164
aS'divorced'
p3165
aS'to time'
p3166
aS'end time'
p3167
aS'cease date'
p3168
aS'to'
p3169
aS'dissolved'
p3170
aS'closed'
p3171
aS'cease time'
p3172
aS'ending'
p3173
aS'fall date'
p3174
aS'until'
p3175
asS'http://dbpedia.org/property/research'
p3176
(lp3177
S'Research'
p3178
asS'http://dbpedia.org/property/altFlag'
p3179
(lp3180
S'alt flag'
p3181
asS'http://dbpedia.org/ontology/childOrganisation'
p3182
(lp3183
S'child organisation'
p3184
asS'http://dbpedia.org/property/venues'
p3185
(lp3186
S'venues'
p3187
asS'http://dbpedia.org/property/gdpPppYear'
p3188
(lp3189
S'GDP PPP year'
p3190
asS'http://dbpedia.org/property/pushpinLabelPosition'
p3191
(lp3192
S'pushpin label position'
p3193
asVhttp://dbpedia.org/property/sudocId
p3194
(lp3195
S'IdRef'
p3196
aS'SUDOC authorities'
p3197
asS'http://dbpedia.org/property/roadName'
p3198
(lp3199
S'road name'
p3200
asS'http://dbpedia.org/property/augHumidity'
p3201
(lp3202
S'Aug humidity'
p3203
asS'http://dbpedia.org/property/participants'
p3204
(lp3205
S'participants'
p3206
asS'http://dbpedia.org/property/posthumousName'
p3207
(lp3208
S'posthumous name'
p3209
asS'http://dbpedia.org/property/geoFeatures'
p3210
(lp3211
S'geo features'
p3212
asS'http://dbpedia.org/property/statusText'
p3213
(lp3214
S'status text'
p3215
asS'http://dbpedia.org/property/alternativeLocationMap'
p3216
(lp3217
S'alternative location map'
p3218
asS'http://dbpedia.org/ontology/railwayRollingStock'
p3219
(lp3220
S'railway rolling stock'
p3221
asVhttp://dbpedia.org/ontology/birthPlace
p3222
g145
sS'http://dbpedia.org/property/restaurants'
p3223
(lp3224
S'restaurants'
p3225
asS'http://dbpedia.org/property/builtBy'
p3226
(lp3227
S'built by'
p3228
asVhttp://dbpedia.org/property/inseeCode
p3229
(lp3230
S'municipality code (France)'
p3231
aS'INSEE municipality code'
p3232
asS'http://dbpedia.org/property/publishingCity'
p3233
(lp3234
S'publishing city'
p3235
asS'http://dbpedia.org/property/mayRecordHighC'
p3236
(lp3237
S'May record high C'
p3238
asS'http://dbpedia.org/property/junRecordHighC'
p3239
(lp3240
S'Jun record high C'
p3241
asVhttp://dbpedia.org/ontology/nlaId
p3242
g451
sS'http://dbpedia.org/ontology/source'
p3243
(lp3244
S'source'
p3245
asS'http://dbpedia.org/property/worldPlace'
p3246
(lp3247
S'world place'
p3248
asS'http://dbpedia.org/property/countryOrigin'
p3249
(lp3250
S'country-origin'
p3251
asS'http://dbpedia.org/property/metricFirst'
p3252
(lp3253
S'metric first'
p3254
asS'http://dbpedia.org/property/philosophy'
p3255
(lp3256
S'Philosophy'
p3257
asVhttp://dbpedia.org/ontology/foundingDate
p3258
g2816
sS'http://dbpedia.org/property/nearNw'
p3259
(lp3260
S'near-nw'
p3261
asS'http://dbpedia.org/ontology/Infrastructure/length'
p3262
(lp3263
S'length (km)'
p3264
asS'http://dbpedia.org/property/areaWaterPercent'
p3265
(lp3266
S'area water percent'
p3267
asS'http://dbpedia.org/property/endA'
p3268
(lp3269
S'end a'
p3270
asS'http://dbpedia.org/property/leadersSeat'
p3271
(lp3272
S'leaders seat'
p3273
asS'http://dbpedia.org/property/endB'
p3274
(lp3275
S'end b'
p3276
asS'http://dbpedia.org/property/prevcity'
p3277
(lp3278
S'prevcity'
p3279
asS'http://dbpedia.org/property/nearNe'
p3280
(lp3281
S'near-ne'
p3282
asS'http://dbpedia.org/property/mouthLocation'
p3283
(lp3284
S'mouth location'
p3285
asS'http://dbpedia.org/property/pos'
p3286
(lp3287
S'pos'
p3288
asS'http://dbpedia.org/property/pop'
p3289
(lp3290
S'pop '
p3291
asS'http://dbpedia.org/property/operatingIncome'
p3292
(lp3293
S'operating income'
p3294
asS'http://dbpedia.org/property/relatives'
p3295
(lp3296
S'relatives'
p3297
asVhttp://dbpedia.org/property/constellation
p3298
g2803
sS'http://dbpedia.org/property/fields'
p3299
(lp3300
S'fields'
p3301
asS'http://dbpedia.org/property/elevationMinFt'
p3302
(lp3303
S'elevation min ft'
p3304
asS'http://dbpedia.org/property/single'
p3305
(lp3306
S'single'
p3307
asS'http://dbpedia.org/property/hostcity'
p3308
(lp3309
S'hostcity'
p3310
asVhttp://dbpedia.org/ontology/owner
p3311
g719
sS'http://dbpedia.org/property/logoalt'
p3312
(lp3313
S'logoalt'
p3314
asS'http://dbpedia.org/property/commonLanguages'
p3315
(lp3316
S'common languages'
p3317
asS'http://dbpedia.org/property/officialReligion'
p3318
(lp3319
S'official religion'
p3320
asS'http://dbpedia.org/property/upstream'
p3321
(lp3322
S'upstream'
p3323
asS'http://dbpedia.org/property/rows'
p3324
(lp3325
S'rows'
p3326
asS'http://dbpedia.org/property/titlebar'
p3327
(lp3328
S'titlebar'
p3329
asS'http://dbpedia.org/ontology/executiveProducer'
p3330
(lp3331
S'executive producer'
p3332
asS'http://dbpedia.org/property/utcOffsetDst'
p3333
(lp3334
S'utc offset DST'
p3335
asS'http://dbpedia.org/ontology/openingDate'
p3336
(lp3337
S'opening date'
p3338
asS'http://dbpedia.org/property/asianPlaceQ'
p3339
(lp3340
S'Asian place Q'
p3341
asVhttp://dbpedia.org/property/constructionMaterial
p3342
g793
sS'http://dbpedia.org/property/nations'
p3343
(lp3344
S'nations'
p3345
asS'http://dbpedia.org/ontology/floorArea'
p3346
(lp3347
S'floor area (m2)'
p3348
asS'http://dbpedia.org/ontology/PopulatedPlace/areaMetro'
p3349
(lp3350
S'area metro (km2)'
p3351
asS'http://dbpedia.org/property/allegiance'
p3352
(lp3353
S'allegiance'
p3354
asS'http://dbpedia.org/property/image'
p3355
(lp3356
S'image'
p3357
asS'http://dbpedia.org/property/asianPlaceF'
p3358
(lp3359
S'Asian place F'
p3360
asS'http://dbpedia.org/property/shoppingMallName'
p3361
(lp3362
S'shopping mall name'
p3363
asS'http://dbpedia.org/property/constituencyMp'
p3364
(lp3365
S'constituency MP'
p3366
asS'http://dbpedia.org/property/minority'
p3367
(lp3368
S'minority'
p3369
asS'http://dbpedia.org/property/voices'
p3370
(lp3371
S'voices'
p3372
asS'http://dbpedia.org/property/regionServed'
p3373
(lp3374
S'region served'
p3375
asS'http://dbpedia.org/property/demographics1Title'
p3376
(lp3377
S'demographics1 title'
p3378
asS'http://dbpedia.org/property/footnotes'
p3379
(lp3380
S'footnotes'
p3381
asS'http://dbpedia.org/ontology/series'
p3382
(lp3383
S'series'
p3384
asS'http://dbpedia.org/ontology/engine'
p3385
(lp3386
S'engine'
p3387
asS'http://dbpedia.org/property/areaTotalSqMi'
p3388
(lp3389
S'area total sq mi'
p3390
asS'http://dbpedia.org/property/quoted'
p3391
(lp3392
S'quoted'
p3393
asS'http://dbpedia.org/property/populationEstimateYear'
p3394
(lp3395
S'population estimate year'
p3396
asS'http://dbpedia.org/property/characterName'
p3397
(lp3398
S'character name'
p3399
asVhttp://dbpedia.org/resource/Gestapo
p3400
(lp3401
S'Gestapo'
p3402
asS'http://dbpedia.org/property/setting'
p3403
(lp3404
S'setting'
p3405
asS'http://dbpedia.org/property/trackvenue'
p3406
(lp3407
S'trackvenue'
p3408
asS'http://dbpedia.org/property/map1Caption'
p3409
(lp3410
S'map1 caption'
p3411
asS'http://dbpedia.org/property/yearLeader'
p3412
(lp3413
S'year leader'
p3414
asS'http://dbpedia.org/ontology/MeanOfTransportation/height'
p3415
(lp3416
S'height (mm)'
p3417
asS'http://dbpedia.org/property/sovereigntyType'
p3418
(lp3419
S'sovereignty type'
p3420
asS'http://dbpedia.org/ontology/city'
p3421
(lp3422
S'city'
p3423
asS'http://dbpedia.org/ontology/militaryCommand'
p3424
(lp3425
S'military command'
p3426
asS'http://dbpedia.org/ontology/routeEnd'
p3427
(lp3428
S'route end'
p3429
asVhttp://dbpedia.org/property/distributor
p3430
(lp3431
S'distributor'
p3432
aS'distributed by'
p3433
asS'http://dbpedia.org/property/aprRainDays'
p3434
(lp3435
S'Apr rain days'
p3436
asS'http://dbpedia.org/property/usingCountries'
p3437
(lp3438
S'using countries'
p3439
asS'http://dbpedia.org/property/firstRun'
p3440
(lp3441
S'first run'
p3442
asS'http://dbpedia.org/property/stat4label'
p3443
(lp3444
S'stat4label'
p3445
asS'http://dbpedia.org/property/launchSite'
p3446
(lp3447
S'launch site'
p3448
asVhttp://dbpedia.org/ontology/birthName
p3449
(lp3450
S'born as'
p3451
aS'birth name (monolingual text)'
p3452
aS'maiden name'
p3453
aS'bn'
p3454
aS'nee'
p3455
aS'birthname'
p3456
aS'name at birth'
p3457
aS'bname'
p3458
aS'n\xc3\xa9e'
p3459
aS'birth name'
p3460
aS'full name at birth'
p3461
asVhttp://dbpedia.org/property/movement
p3462
g1979
sVhttp://dbpedia.org/property/battle
p3463
(lp3464
S'in action'
p3465
aS'participated in conflict'
p3466
aS'in conflict'
p3467
aS'theatre'
p3468
aS'participant in conflict'
p3469
aS'battle'
p3470
aS'theater'
p3471
aS'war'
p3472
aS'conflict'
p3473
asS'http://dbpedia.org/ontology/percentageOfAreaWater'
p3474
(lp3475
S'percentage of area water'
p3476
asS'http://dbpedia.org/property/type'
p3477
(lp3478
S'type'
p3479
asVhttp://dbpedia.org/ontology/launchDate
p3480
g2265
sS'http://dbpedia.org/property/replaces'
p3481
(lp3482
S'replaces'
p3483
asS'http://dbpedia.org/ontology/result'
p3484
(lp3485
S'result'
p3486
asS'http://dbpedia.org/ontology/firstAscentPerson'
p3487
(lp3488
S'person that first ascented a mountain'
p3489
asS'http://dbpedia.org/property/insigniasize'
p3490
(lp3491
S'insigniasize'
p3492
asVhttp://dbpedia.org/property/areaCode
p3493
(lp3494
S'telephone numbering plan'
p3495
aS'local dialing code'
p3496
aS'telephone prefix'
p3497
aS'telephone code'
p3498
aS'local calling code'
p3499
aS'STD code'
p3500
aS'area code'
p3501
asS'http://dbpedia.org/property/publishedIn'
p3502
(lp3503
S'published in'
p3504
asS'http://dbpedia.org/property/hdi'
p3505
(lp3506
S'HDI'
p3507
asS'http://dbpedia.org/property/highschool'
p3508
(lp3509
S'highschool'
p3510
asVhttp://dbpedia.org/ontology/viafId
p3511
(lp3512
S'VIAF identifier'
p3513
aS'Virtual International Authority File'
p3514
aS'VIAF'
p3515
aS'VIAF ID'
p3516
asS'http://dbpedia.org/property/year'
p3517
(lp3518
S'year'
p3519
asVhttp://dbpedia.org/property/deathCause
p3520
(lp3521
S'death cause'
p3522
aS'die from'
p3523
aS'cause of death'
p3524
asVhttp://dbpedia.org/property/birthDate
p3525
g604
sS'http://dbpedia.org/property/numberOfStores'
p3526
(lp3527
S'number of stores'
p3528
asS'http://dbpedia.org/property/weapon'
p3529
(lp3530
S'Weapon'
p3531
asS'http://dbpedia.org/property/settlementType'
p3532
(lp3533
S'settlement type'
p3534
asS'http://dbpedia.org/property/marSun'
p3535
(lp3536
S'Mar sun'
p3537
asS'http://dbpedia.org/property/minister1Pfo'
p3538
(lp3539
S'minister1 pfo'
p3540
asVhttp://dbpedia.org/property/designer
p3541
g902
sS'http://dbpedia.org/property/hubs'
p3542
(lp3543
S'hubs'
p3544
asS'http://dbpedia.org/ontology/routeStartLocation'
p3545
(lp3546
S'route start location'
p3547
asVhttp://dbpedia.org/ontology/crosses
p3548
(lp3549
S'tunnel under'
p3550
aS'over'
p3551
aS'crosses'
p3552
aS'bridge over'
p3553
aS'under'
p3554
asVhttp://dbpedia.org/property/terytCode
p3555
(lp3556
S'Polish municipal ID'
p3557
aS'Poland municipal ID'
p3558
aS'TERYT municipality code'
p3559
asVhttp://dbpedia.org/ontology/highestPoint
p3560
(lp3561
S'highest peak'
p3562
aS'highest point'
p3563
aS'zenith'
p3564
asS'http://dbpedia.org/property/possessions'
p3565
(lp3566
S'possessions'
p3567
asS'http://dbpedia.org/property/artist'
p3568
(lp3569
S'Artist'
p3570
asS'http://dbpedia.org/property/percentWater'
p3571
(lp3572
S'percent water'
p3573
asVhttp://dbpedia.org/property/atomicNumber
p3574
(lp3575
S'number of protons'
p3576
aS'Z'
p3577
aS'atomic number'
p3578
aS'atom number'
p3579
aS'proton number'
p3580
asS'http://dbpedia.org/property/publisher'
p3581
(lp3582
S'publisher'
p3583
asS'http://dbpedia.org/property/sf1Location'
p3584
(lp3585
S'sf1-location'
p3586
asS'http://dbpedia.org/property/headerAlign'
p3587
(lp3588
S'header align'
p3589
asS'http://dbpedia.org/property/north'
p3590
(lp3591
S'North'
p3592
asS'http://dbpedia.org/property/result'
p3593
(lp3594
S'result'
p3595
asVhttp://dbpedia.org/property/lccnId
p3596
(lp3597
S'LCAuth ID'
p3598
aS'LCAuth'
p3599
aS'LoC Authorities'
p3600
aS'Library of Congress Control Number'
p3601
aS'LCAuth identifier'
p3602
aS'Library of Congress Name Authority File'
p3603
aS'LCCN identifier'
p3604
aS'Library of Congress Subject Headings'
p3605
aS'LCNAF'
p3606
aS'LCSH'
p3607
asS'http://dbpedia.org/property/stock'
p3608
(lp3609
S'stock'
p3610
asS'http://dbpedia.org/property/titleDeputy'
p3611
(lp3612
S'title deputy'
p3613
asS'http://dbpedia.org/property/host'
p3614
(lp3615
S'host'
p3616
asS'http://dbpedia.org/property/imageSize'
p3617
(lp3618
S'image size'
p3619
asS'http://dbpedia.org/property/goals'
p3620
(lp3621
S'goals'
p3622
asS'http://dbpedia.org/property/shortsummary'
p3623
(lp3624
S'ShortSummary'
p3625
asS'http://dbpedia.org/property/remit'
p3626
(lp3627
S'remit'
p3628
asS'http://dbpedia.org/property/typeName'
p3629
(lp3630
S'type name'
p3631
asS'http://dbpedia.org/property/hofdate'
p3632
(lp3633
S'hofdate'
p3634
asS'http://dbpedia.org/property/titles'
p3635
(lp3636
S'titles'
p3637
asS'http://dbpedia.org/property/firstEpisode'
p3638
(lp3639
S'first episode'
p3640
asVhttp://dbpedia.org/property/viafId
p3641
g3512
sS'http://dbpedia.org/property/centre'
p3642
(lp3643
S'Centre'
p3644
asS'http://dbpedia.org/property/writers'
p3645
(lp3646
S'writers'
p3647
asS'http://dbpedia.org/property/locationTown'
p3648
(lp3649
S'location town'
p3650
asS'http://dbpedia.org/ontology/cost'
p3651
(lp3652
S'cost ($)'
p3653
asS'http://dbpedia.org/property/subcat'
p3654
(lp3655
S'subcat'
p3656
asS'http://dbpedia.org/property/finaldate'
p3657
(lp3658
S'finaldate'
p3659
asVhttp://dbpedia.org/ontology/cinematography
p3660
g2115
sS'http://dbpedia.org/property/services'
p3661
(lp3662
S'services'
p3663
asS'http://dbpedia.org/property/executedBy'
p3664
(lp3665
S'executed by'
p3666
asS'http://dbpedia.org/property/books'
p3667
(lp3668
S'books'
p3669
asVhttp://dbpedia.org/property/amgid
p3670
(lp3671
S'AllMovie movie ID'
p3672
asS'http://dbpedia.org/property/aprRecordLowC'
p3673
(lp3674
S'Apr record low C'
p3675
asVhttp://dbpedia.org/property/bSide
p3676
g763
sS'http://dbpedia.org/property/electors'
p3677
(lp3678
S'electors'
p3679
asS'http://dbpedia.org/ontology/sourceRegion'
p3680
(lp3681
S'source region'
p3682
asS'http://dbpedia.org/property/decPrecipitationMm'
p3683
(lp3684
S'Dec precipitation mm'
p3685
asVhttp://dbpedia.org/property/flag
p3686
(lp3687
S'image flag'
p3688
aS'flag image'
p3689
aS'image of flag'
p3690
asS'http://dbpedia.org/property/fontsize'
p3691
(lp3692
S'fontsize'
p3693
asS'http://dbpedia.org/property/novPrecipitationDays'
p3694
(lp3695
S'Nov precipitation days'
p3696
asS'http://dbpedia.org/property/addcharcat'
p3697
(lp3698
S'addcharcat'
p3699
asS'http://dbpedia.org/property/callsignMeaning'
p3700
(lp3701
S'callsign meaning'
p3702
asS'http://dbpedia.org/ontology/relatedMeanOfTransportation'
p3703
(lp3704
S'related mean of transportation'
p3705
asVhttp://dbpedia.org/property/releaseDate
p3706
g2240
sS'http://dbpedia.org/property/caption'
p3707
(lp3708
S'caption'
p3709
asVhttp://dbpedia.org/property/spouse
p3710
(lp3711
S'wedded to'
p3712
aS'consort'
p3713
aS'wed'
p3714
aS'marry'
p3715
aS'married'
p3716
aS'married to'
p3717
aS'marriage partner'
p3718
aS'wife'
p3719
aS'partner'
p3720
aS'spouse'
p3721
aS'husband'
p3722
asS'http://dbpedia.org/ontology/office'
p3723
(lp3724
S'office'
p3725
asVhttp://dbpedia.org/property/birthName
p3726
g3450
sS'http://dbpedia.org/ontology/creatorOfDish'
p3727
(lp3728
S'creator of dish'
p3729
asS'http://dbpedia.org/property/minister2Pfo'
p3730
(lp3731
S'minister2 pfo'
p3732
asS'http://dbpedia.org/property/currenttraininglocations'
p3733
(lp3734
S'currenttraininglocations'
p3735
asS'http://dbpedia.org/ontology/utcOffset'
p3736
(lp3737
S'UTC offset'
p3738
asS'http://dbpedia.org/property/yearLowC'
p3739
(lp3740
S'year low C'
p3741
asS'http://dbpedia.org/ontology/sourceMountain'
p3742
(lp3743
S'source mountain'
p3744
asS'http://dbpedia.org/property/dissolved'
p3745
(lp3746
S'dissolved'
p3747
asVhttp://dbpedia.org/ontology/leader
p3748
(lp3749
S'leader'
p3750
asS'http://dbpedia.org/property/stopover'
p3751
(lp3752
S'stopover'
p3753
asS'http://dbpedia.org/property/realName'
p3754
(lp3755
S'real name'
p3756
asS'http://dbpedia.org/property/title'
p3757
(lp3758
S'title'
p3759
asS'http://dbpedia.org/property/mayRainMm'
p3760
(lp3761
S'May rain mm'
p3762
asS'http://dbpedia.org/ontology/firstAppearance'
p3763
(lp3764
S'first appearance'
p3765
asS'http://dbpedia.org/property/titleBg'
p3766
(lp3767
S'title bg'
p3768
asS'http://dbpedia.org/ontology/tenant'
p3769
(lp3770
S'tenant'
p3771
asS'http://dbpedia.org/property/foreignSuppliers'
p3772
(lp3773
S'foreign suppliers'
p3774
asS'http://dbpedia.org/property/championOther'
p3775
(lp3776
S'champion other'
p3777
asS'http://dbpedia.org/ontology/mouthCountry'
p3778
(lp3779
S'mouth country'
p3780
asS'http://dbpedia.org/property/sort'
p3781
(lp3782
S'sort'
p3783
asS'http://dbpedia.org/property/directionB'
p3784
(lp3785
S'direction b'
p3786
asS'http://dbpedia.org/property/brm'
p3787
(lp3788
S'brm'
p3789
asVhttp://dbpedia.org/property/crewMember
p3790
(lp3791
S'crew member'
p3792
asS'http://dbpedia.org/property/humidityColour'
p3793
(lp3794
S'humidity colour'
p3795
asVhttp://dbpedia.org/property/religion
p3796
(lp3797
S'religion'
p3798
aS'faith'
p3799
aS'life stance'
p3800
aS'religious affiliation'
p3801
aS'denomination'
p3802
asS'http://dbpedia.org/ontology/formationYear'
p3803
(lp3804
S'formation year'
p3805
asS'http://dbpedia.org/property/assembly'
p3806
(lp3807
S'assembly'
p3808
asS'http://dbpedia.org/property/efYear'
p3809
(lp3810
S'EF year'
p3811
asS'http://dbpedia.org/property/yearEnd'
p3812
(lp3813
S'year end'
p3814
asVhttp://dbpedia.org/property/highestPoint
p3815
g3561
sS'http://dbpedia.org/ontology/formationDate'
p3816
(lp3817
S'formation date'
p3818
asS'http://dbpedia.org/property/parentHouse'
p3819
(lp3820
S'parent house'
p3821
asS'http://dbpedia.org/property/blank5Info'
p3822
(lp3823
S'blank5 info'
p3824
asS'http://dbpedia.org/property/raised'
p3825
(lp3826
S'raised'
p3827
asVhttp://dbpedia.org/property/ofsCode
p3828
g426
sS'http://dbpedia.org/property/summary'
p3829
(lp3830
S'summary'
p3831
asS'http://dbpedia.org/property/riverType'
p3832
(lp3833
S'river type'
p3834
asS'http://dbpedia.org/property/decRecordHighC'
p3835
(lp3836
S'Dec record high C'
p3837
asVhttp://dbpedia.org/property/anthem
p3838
(lp3839
S'anthem'
p3840
aS'official song'
p3841
aS'march'
p3842
aS'national anthem'
p3843
asS'http://dbpedia.org/ontology/restingPlace'
p3844
(lp3845
S'resting place'
p3846
asS'http://dbpedia.org/property/yearRainDays'
p3847
(lp3848
S'year rain days'
p3849
asVhttp://dbpedia.org/ontology/signature
p3850
g1754
sS'http://dbpedia.org/property/altMap'
p3851
(lp3852
S'alt map'
p3853
asS'http://dbpedia.org/property/febRainDays'
p3854
(lp3855
S'Feb rain days'
p3856
asS'http://dbpedia.org/property/mouthCountry'
p3857
(lp3858
S'mouth country'
p3859
asS'http://dbpedia.org/property/homeGround'
p3860
(lp3861
S'Home Ground'
p3862
asVhttp://dbpedia.org/property/cpu
p3863
g2416
sS'http://dbpedia.org/property/termEnd'
p3864
(lp3865
S'term end'
p3866
asS'http://dbpedia.org/property/elevationMaxFt'
p3867
(lp3868
S'elevation max ft'
p3869
asS'http://dbpedia.org/property/lga'
p3870
(lp3871
S'lga'
p3872
asS'http://dbpedia.org/property/themeMusicComposer'
p3873
(lp3874
S'theme music composer'
p3875
asS'http://dbpedia.org/property/discoveryLocation'
p3876
(lp3877
S'discovery location'
p3878
asVhttp://dbpedia.org/property/homeport
p3879
g2876
sS'http://dbpedia.org/property/giniRank'
p3880
(lp3881
S'Gini rank'
p3882
asS'http://dbpedia.org/property/areasAffected'
p3883
(lp3884
S'areas affected'
p3885
asS'http://dbpedia.org/ontology/county'
p3886
(lp3887
S'county'
p3888
asS'http://dbpedia.org/property/overseasChapter'
p3889
(lp3890
S'Overseas Chapter'
p3891
asS'http://dbpedia.org/property/exImageCap'
p3892
(lp3893
S'ex image cap'
p3894
asS'http://dbpedia.org/property/foaled'
p3895
(lp3896
S'foaled'
p3897
asS'http://dbpedia.org/property/blank2NameSec'
p3898
(lp3899
S'blank2 name sec'
p3900
asVhttp://dbpedia.org/property/doctoralStudent
p3901
g1708
sS'http://dbpedia.org/property/insigniacaption'
p3902
(lp3903
S'insigniacaption'
p3904
asS'http://dbpedia.org/ontology/isPartOfName'
p3905
(lp3906
S'is part of (literal)'
p3907
asS'http://dbpedia.org/property/minister2Name'
p3908
(lp3909
S'minister2 name'
p3910
asS'http://dbpedia.org/ontology/coach'
p3911
(lp3912
S'coach'
p3913
asS'http://dbpedia.org/ontology/extinctionYear'
p3914
(lp3915
S'extinction year'
p3916
asS'http://dbpedia.org/property/hero'
p3917
(lp3918
S'hero'
p3919
asS'http://dbpedia.org/property/branch'
p3920
(lp3921
S'branch'
p3922
asS'http://dbpedia.org/property/locationState'
p3923
(lp3924
S'location state'
p3925
asS'http://dbpedia.org/property/mcaption'
p3926
(lp3927
S'mcaption'
p3928
asS'http://dbpedia.org/property/novHumidity'
p3929
(lp3930
S'Nov humidity'
p3931
asS'http://dbpedia.org/ontology/endPoint'
p3932
(lp3933
S'end point'
p3934
asS'http://dbpedia.org/property/homepage'
p3935
(lp3936
S'homepage'
p3937
asS'http://dbpedia.org/property/foundation'
p3938
(lp3939
S'foundation'
p3940
asS'http://dbpedia.org/property/debutteam'
p3941
(lp3942
S'debutteam'
p3943
asVhttp://dbpedia.org/property/icd9
p3944
(lp3945
S'ICD-9 code'
p3946
aS'code ICD-9'
p3947
aS'ICD-9'
p3948
asS'http://dbpedia.org/property/source1Country'
p3949
(lp3950
S'source1 country'
p3951
asS'http://dbpedia.org/property/populationEstimate'
p3952
(lp3953
S'population estimate'
p3954
asS'http://dbpedia.org/property/sortkey'
p3955
(lp3956
S'sortkey'
p3957
asS'http://dbpedia.org/property/q'
p3958
(lp3959
S'q'
p3960
asS'http://dbpedia.org/property/p'
p3961
(lp3962
S'p'
p3963
asS'http://dbpedia.org/property/s'
p3964
(lp3965
S's'
p3966
asS'http://dbpedia.org/property/u'
p3967
(lp3968
S'u'
p3969
asS'http://dbpedia.org/property/t'
p3970
(lp3971
S't'
p3972
asS'http://dbpedia.org/property/w'
p3973
(lp3974
S'w'
p3975
asS'http://dbpedia.org/property/v'
p3976
(lp3977
S'v'
p3978
asS'http://dbpedia.org/property/y'
p3979
(lp3980
S'y'
p3981
asS'http://dbpedia.org/property/affiliations'
p3982
(lp3983
S'affiliations'
p3984
asS'http://dbpedia.org/property/c'
p3985
(lp3986
S'c'
p3987
asS'http://dbpedia.org/property/b'
p3988
(lp3989
S'b'
p3990
asVhttp://dbpedia.org/ontology/continent
p3991
(lp3992
S'continent'
p3993
asS'http://dbpedia.org/property/winnerOrigin'
p3994
(lp3995
S'winner-origin'
p3996
asS'http://dbpedia.org/property/abilities'
p3997
(lp3998
S'abilities'
p3999
asS'http://dbpedia.org/property/m'
p4000
(lp4001
S'm'
p4002
asS'http://dbpedia.org/property/l'
p4003
(lp4004
S'l'
p4005
asS'http://dbpedia.org/property/n'
p4006
(lp4007
S'n'
p4008
asS'http://dbpedia.org/ontology/primeMinister'
p4009
(lp4010
S'prime minister'
p4011
asVhttp://dbpedia.org/property/imdbId
p4012
g529
sS'http://dbpedia.org/ontology/usingCountry'
p4013
(lp4014
S'using country'
p4015
asS'http://dbpedia.org/property/yearStart'
p4016
(lp4017
S'year start'
p4018
asS'http://dbpedia.org/property/fullname'
p4019
(lp4020
S'Fullname'
p4021
asVhttp://dbpedia.org/property/recordLabel
p4022
(lp4023
S'record label'
p4024
aS'label'
p4025
asS'http://dbpedia.org/property/subdivisionName'
p4026
(lp4027
S'subdivision name'
p4028
asVhttp://dbpedia.org/property/party
p4029
g1064
sS'http://dbpedia.org/property/j'
p4030
(lp4031
S'j'
p4032
asS'http://dbpedia.org/property/startmo'
p4033
(lp4034
S'startmo'
p4035
asS'http://dbpedia.org/property/champion'
p4036
(lp4037
S'champion'
p4038
asS'http://dbpedia.org/property/hqLocationCountry'
p4039
(lp4040
S'hq location country'
p4041
asS'http://dbpedia.org/property/sourceConfluenceCountry'
p4042
(lp4043
S'source confluence country'
p4044
asS'http://dbpedia.org/property/sepPrecipitationDays'
p4045
(lp4046
S'Sep precipitation days'
p4047
asS'http://dbpedia.org/property/ground'
p4048
(lp4049
S'ground'
p4050
asS'http://dbpedia.org/property/unitRainDays'
p4051
(lp4052
S'unit rain days'
p4053
asS'http://dbpedia.org/property/widthImperial'
p4054
(lp4055
S'width imperial'
p4056
asS'http://dbpedia.org/property/unitName'
p4057
(lp4058
S'unit name'
p4059
asS'http://dbpedia.org/property/nativename'
p4060
(lp4061
S'nativename'
p4062
asS'http://dbpedia.org/property/subject'
p4063
(lp4064
S'subject'
p4065
asS'http://dbpedia.org/property/dates'
p4066
(lp4067
S'dates'
p4068
asS'http://dbpedia.org/property/released'
p4069
(lp4070
S'released'
p4071
asVhttp://dbpedia.org/ontology/league
p4072
g1605
sS'http://dbpedia.org/property/shipHomeport'
p4073
(lp4074
S'Ship homeport'
p4075
asS'http://dbpedia.org/property/popYear'
p4076
(lp4077
S'pop year'
p4078
asS'http://dbpedia.org/property/duration'
p4079
(lp4080
S'duration'
p4081
asS'http://dbpedia.org/property/builder'
p4082
(lp4083
S'builder'
p4084
asS'http://dbpedia.org/property/length1Type'
p4085
(lp4086
S'length1 type'
p4087
asS'http://dbpedia.org/property/populationCensusYear'
p4088
(lp4089
S'population census year'
p4090
asS'http://dbpedia.org/property/stadiumName'
p4091
(lp4092
S'stadium name'
p4093
asS'http://dbpedia.org/property/studio'
p4094
(lp4095
S'studio'
p4096
asVhttp://dbpedia.org/property/basedOn
p4097
g1187
sS'http://dbpedia.org/property/height'
p4098
(lp4099
S'height'
p4100
asS'http://dbpedia.org/property/nearW'
p4101
(lp4102
S'near-w'
p4103
asS'http://dbpedia.org/property/janSun'
p4104
(lp4105
S'Jan sun'
p4106
asS'http://dbpedia.org/property/nearS'
p4107
(lp4108
S'near-s'
p4109
asS'http://dbpedia.org/property/lengthImperial'
p4110
(lp4111
S'length imperial'
p4112
asS'http://dbpedia.org/property/monuments'
p4113
(lp4114
S'monuments'
p4115
asS'http://dbpedia.org/property/nearN'
p4116
(lp4117
S'near-n'
p4118
asVhttp://dbpedia.org/property/date
p4119
g2010
sS'http://dbpedia.org/property/child1Agency'
p4120
(lp4121
S'child1 agency'
p4122
asS'http://dbpedia.org/property/data'
p4123
(lp4124
S'data'
p4125
asS'http://dbpedia.org/property/mapWidth'
p4126
(lp4127
S'map width'
p4128
asS'http://dbpedia.org/ontology/parkingInformation'
p4129
(lp4130
S'parking information'
p4131
asVhttp://dbpedia.org/ontology/recordLabel
p4132
g4023
sS'http://dbpedia.org/property/text'
p4133
(lp4134
S'text'
p4135
asS'http://dbpedia.org/property/bridgeSigns'
p4136
(lp4137
S'bridge signs'
p4138
asS'http://dbpedia.org/property/long'
p4139
(lp4140
S'long'
p4141
asS'http://dbpedia.org/property/mayRainDays'
p4142
(lp4143
S'May rain days'
p4144
asVhttp://dbpedia.org/property/editor
p4145
g2935
sS'http://dbpedia.org/property/leagueChampName'
p4146
(lp4147
S'league champ name'
p4148
asS'http://dbpedia.org/ontology/fastestDriverCountry'
p4149
(lp4150
S'fastest driver country'
p4151
asS'http://dbpedia.org/property/coordinatesDisplay'
p4152
(lp4153
S'coordinates display'
p4154
asS'http://dbpedia.org/ontology/showJudge'
p4155
(lp4156
S'showJudge'
p4157
asS'http://dbpedia.org/ontology/canonizedPlace'
p4158
(lp4159
S'canonized place'
p4160
asS'http://dbpedia.org/property/majority'
p4161
(lp4162
S'majority'
p4163
asVhttp://dbpedia.org/ontology/pdb
p4164
(lp4165
S'PDB ID'
p4166
asS'http://dbpedia.org/property/populationDensitySqMi'
p4167
(lp4168
S'population density sq mi'
p4169
asS'http://dbpedia.org/property/janPrecipitationDays'
p4170
(lp4171
S'Jan precipitation days'
p4172
asS'http://dbpedia.org/property/position'
p4173
(lp4174
S'position'
p4175
asS'http://dbpedia.org/property/broadcastAreas'
p4176
(lp4177
S'broadcast areas'
p4178
asS'http://dbpedia.org/ontology/formerName'
p4179
(lp4180
S'former name'
p4181
asS'http://dbpedia.org/property/usedBy'
p4182
(lp4183
S'used by'
p4184
asVhttp://dbpedia.org/property/diocese
p4185
g1892
sVhttp://dbpedia.org/property/cosparId
p4186
(lp4187
S'COSPAR designation'
p4188
aS'International Designator'
p4189
aS'COSPAR ID'
p4190
aS'NSSDC ID'
p4191
asVhttp://dbpedia.org/property/colour
p4192
(lp4193
S'color'
p4194
aS'colour'
p4195
asS'http://dbpedia.org/property/before'
p4196
(lp4197
S'before'
p4198
asS'http://dbpedia.org/property/setIn'
p4199
(lp4200
S'set in'
p4201
asS'http://dbpedia.org/ontology/Automobile/wheelbase'
p4202
(lp4203
S'wheelbase (mm)'
p4204
asS'http://dbpedia.org/property/affiliation'
p4205
(lp4206
S'affiliation'
p4207
asS'http://dbpedia.org/property/janRainMm'
p4208
(lp4209
S'Jan rain mm'
p4210
asS'http://dbpedia.org/property/chancellor'
p4211
(lp4212
S'chancellor'
p4213
asS'http://dbpedia.org/property/birthplace'
p4214
(lp4215
S'birthplace'
p4216
asS'http://dbpedia.org/property/titlestyle'
p4217
(lp4218
S'titlestyle'
p4219
asS'http://dbpedia.org/property/legislature'
p4220
(lp4221
S'Legislature'
p4222
asS'http://dbpedia.org/property/based'
p4223
(lp4224
S'based'
p4225
asS'http://dbpedia.org/property/utcOffset'
p4226
(lp4227
S'utc offset'
p4228
asS'http://dbpedia.org/property/dateFormat'
p4229
(lp4230
S'date format'
p4231
asS'http://dbpedia.org/property/seatWl'
p4232
(lp4233
S'seat wl'
p4234
asS'http://dbpedia.org/property/nationalty'
p4235
(lp4236
S'Nationalty'
p4237
asS'http://dbpedia.org/ontology/postalCode'
p4238
(lp4239
S'postal code'
p4240
asS'http://dbpedia.org/property/quote'
p4241
(lp4242
S'quote'
p4243
asS'http://dbpedia.org/property/burialPlace'
p4244
(lp4245
S'burial place'
p4246
asS'http://dbpedia.org/property/discoverySite'
p4247
(lp4248
S'discovery site'
p4249
asS'http://dbpedia.org/property/febLowC'
p4250
(lp4251
S'Feb low C'
p4252
asS'http://dbpedia.org/property/origins'
p4253
(lp4254
S'origins'
p4255
asS'http://dbpedia.org/ontology/areaMetro'
p4256
(lp4257
S'area metro (m2)'
p4258
asVhttp://dbpedia.org/ontology/discipline
p4259
g1031
sVhttp://dbpedia.org/ontology/atomicNumber
p4260
g3575
sS'http://dbpedia.org/property/officialName'
p4261
(lp4262
S'official name'
p4263
asS'http://dbpedia.org/property/align'
p4264
(lp4265
S'align'
p4266
asS'http://dbpedia.org/property/languagesType'
p4267
(lp4268
S'languages type'
p4269
asS'http://dbpedia.org/property/marPrecipitationMm'
p4270
(lp4271
S'Mar precipitation mm'
p4272
asS'http://dbpedia.org/property/downstreamSigns'
p4273
(lp4274
S'downstream signs'
p4275
asS'http://dbpedia.org/property/parentType'
p4276
(lp4277
S'parent type'
p4278
asS'http://dbpedia.org/ontology/territory'
p4279
(lp4280
S'territory'
p4281
asS'http://dbpedia.org/property/chief2Name'
p4282
(lp4283
S'chief2 name'
p4284
asS'http://dbpedia.org/property/via'
p4285
(lp4286
S'via1 '
p4287
asS'http://dbpedia.org/property/imageCoat'
p4288
(lp4289
S'image coat'
p4290
asS'http://dbpedia.org/property/height1Type'
p4291
(lp4292
S'height1 type'
p4293
asS'http://dbpedia.org/property/endmo'
p4294
(lp4295
S'endmo'
p4296
asS'http://dbpedia.org/property/asianPlace'
p4297
(lp4298
S'Asian place'
p4299
asS'http://dbpedia.org/property/demographics1Info'
p4300
(lp4301
S'demographics1 info'
p4302
asS'http://dbpedia.org/ontology/mainspan'
p4303
(lp4304
S'mainspan ()'
p4305
asS'http://dbpedia.org/ontology/majorShrine'
p4306
(lp4307
S'major shrine'
p4308
asS'http://dbpedia.org/property/producer'
p4309
(lp4310
S'producer'
p4311
asS'http://dbpedia.org/ontology/elevation'
p4312
(lp4313
S'elevation ()'
p4314
asS'http://dbpedia.org/property/movable'
p4315
(lp4316
S'movable'
p4317
asS'http://dbpedia.org/property/imageName'
p4318
(lp4319
S'image name'
p4320
asS'http://dbpedia.org/property/twin8Country'
p4321
(lp4322
S'twin8 country'
p4323
asS'http://dbpedia.org/property/next'
p4324
(lp4325
S'next'
p4326
asS'http://dbpedia.org/property/rd1t2Loc'
p4327
(lp4328
S'RD1T2-loc'
p4329
asVhttp://dbpedia.org/property/capital
p4330
g220
sVhttp://dbpedia.org/ontology/startDate
p4331
g1106
sVhttp://dbpedia.org/property/highwaySystem
p4332
g2102
sVhttp://dbpedia.org/property/namedAfter
p4333
(lp4334
S'namesake'
p4335
aS'toponym'
p4336
aS'etymology'
p4337
aS'name after'
p4338
aS'named after'
p4339
aS'named for'
p4340
aS'eponym'
p4341
asS'http://dbpedia.org/ontology/routeJunction'
p4342
(lp4343
S'route junction'
p4344
asS'http://dbpedia.org/property/blankData'
p4345
(lp4346
S'blank data'
p4347
asS'http://dbpedia.org/property/issues'
p4348
(lp4349
S'issues'
p4350
asS'http://dbpedia.org/property/singleLine'
p4351
(lp4352
S'single line'
p4353
asS'http://dbpedia.org/property/rd1t8Loc'
p4354
(lp4355
S'RD1T8-loc'
p4356
asS'http://dbpedia.org/ontology/relation'
p4357
(lp4358
S'relation'
p4359
asS'http://dbpedia.org/property/progression'
p4360
(lp4361
S'progression'
p4362
asS'http://dbpedia.org/ontology/mouthPlace'
p4363
(lp4364
S'mouth place'
p4365
asS'http://dbpedia.org/property/superseding'
p4366
(lp4367
S'superseding'
p4368
asVhttp://dbpedia.org/ontology/icd9
p4369
g3945
sS'http://dbpedia.org/property/rd1t3Loc'
p4370
(lp4371
S'RD1T3-loc'
p4372
asS'http://dbpedia.org/property/registrationPlate'
p4373
(lp4374
S'registration plate'
p4375
asS'http://dbpedia.org/property/prevseasonLink'
p4376
(lp4377
S'prevseason link'
p4378
asVhttp://dbpedia.org/ontology/starring
p4379
(lp4380
S'starring'
p4381
aS'cast member'
p4382
aS'actress'
p4383
aS'actor'
p4384
aS'film starring'
p4385
asS'http://dbpedia.org/property/coaSize'
p4386
(lp4387
S'coa size'
p4388
asS'http://dbpedia.org/ontology/governmentType'
p4389
(lp4390
S'government type'
p4391
asS'http://dbpedia.org/property/corporateOffice'
p4392
(lp4393
S'corporate office'
p4394
asS'http://dbpedia.org/ontology/destination'
p4395
(lp4396
S'destination'
p4397
asVhttp://dbpedia.org/ontology/address
p4398
g2161
sS'http://dbpedia.org/property/junHighC'
p4399
(lp4400
S'Jun high C'
p4401
asS'http://dbpedia.org/property/surface'
p4402
(lp4403
S'surface'
p4404
asS'http://dbpedia.org/property/mayHighC'
p4405
(lp4406
S'May high C'
p4407
asS'http://dbpedia.org/property/augPrecipitationDays'
p4408
(lp4409
S'Aug precipitation days'
p4410
asS'http://dbpedia.org/property/col'
p4411
(lp4412
S'col'
p4413
asVhttp://dbpedia.org/ontology/battle
p4414
g3464
sS'http://dbpedia.org/property/alliances'
p4415
(lp4416
S'alliances'
p4417
asS'http://dbpedia.org/property/leader'
p4418
(lp4419
S'leader'
p4420
asVhttp://dbpedia.org/property/nisCode
p4421
g2755
sVhttp://dbpedia.org/ontology/child
p4422
g2176
sS'http://dbpedia.org/property/julRecordLowC'
p4423
(lp4424
S'Jul record low C'
p4425
asS'http://dbpedia.org/property/formation'
p4426
(lp4427
S'formation'
p4428
asS'http://dbpedia.org/property/available'
p4429
(lp4430
S'available'
p4431
asS'http://dbpedia.org/property/numberOfAnchors'
p4432
(lp4433
S'number of anchors'
p4434
asS'http://dbpedia.org/property/created'
p4435
(lp4436
S'created'
p4437
asVhttp://dbpedia.org/property/coatOfArms
p4438
g1359
sS'http://dbpedia.org/property/piersinwater'
p4439
(lp4440
S'piersinwater'
p4441
asS'http://dbpedia.org/ontology/fareZone'
p4442
(lp4443
S'fare zone'
p4444
asS'http://dbpedia.org/property/channel'
p4445
(lp4446
S'channel'
p4447
asS'http://dbpedia.org/property/rd3t2Loc'
p4448
(lp4449
S'RD3T2-loc'
p4450
asS'http://dbpedia.org/property/julHumidity'
p4451
(lp4452
S'Jul humidity'
p4453
asS'http://dbpedia.org/property/child4Agency'
p4454
(lp4455
S'child4 agency'
p4456
asS'http://dbpedia.org/ontology/stateOfOrigin'
p4457
(lp4458
S'state of origin'
p4459
asS'http://dbpedia.org/ontology/electionMajority'
p4460
(lp4461
S'election majority'
p4462
asS'http://dbpedia.org/property/maint'
p4463
(lp4464
S'maint'
p4465
asS'http://dbpedia.org/property/nativeNameLang'
p4466
(lp4467
S'native name lang'
p4468
asS'http://dbpedia.org/property/road2Type'
p4469
(lp4470
S'road2 type'
p4471
asVhttp://dbpedia.org/property/followedBy
p4472
(lp4473
S'prequel of'
p4474
aS'next is'
p4475
aS'succeded by'
p4476
aS'sequel is'
p4477
aS'precedes'
p4478
aS'followed by'
p4479
aS'successor'
p4480
asS'http://dbpedia.org/ontology/portrayer'
p4481
(lp4482
S'portrayer'
p4483
asS'http://dbpedia.org/property/importPartners'
p4484
(lp4485
S'import-partners'
p4486
asS'http://dbpedia.org/property/biejjjrthPlace'
p4487
(lp4488
S'biejjjrth place'
p4489
asVhttp://dbpedia.org/property/pdb
p4490
g4165
sS'http://dbpedia.org/property/gap'
p4491
(lp4492
S'gap'
p4493
asS'http://dbpedia.org/property/augSun'
p4494
(lp4495
S'Aug sun'
p4496
asS'http://dbpedia.org/property/managingAuthorities'
p4497
(lp4498
S'managing authorities'
p4499
asS'http://dbpedia.org/ontology/knownFor'
p4500
(lp4501
S'known for'
p4502
asS'http://dbpedia.org/property/janRecordHighC'
p4503
(lp4504
S'Jan record high C'
p4505
asS'http://dbpedia.org/property/octPrecipitationDays'
p4506
(lp4507
S'Oct precipitation days'
p4508
asVhttp://dbpedia.org/property/author
p4509
(lp4510
S'writer'
p4511
aS'authors'
p4512
aS'writers'
p4513
aS'written by'
p4514
aS'author'
p4515
asS'http://dbpedia.org/property/rightarm'
p4516
(lp4517
S'rightarm'
p4518
asVhttp://dbpedia.org/ontology/sudocId
p4519
g3195
sVhttp://dbpedia.org/ontology/isil
p4520
(lp4521
S'ISIL ID'
p4522
aS'International Standard Identifier for Libraries and Related Organizations'
p4523
aS'ISIL'
p4524
asS'http://dbpedia.org/property/ethnicGroups'
p4525
(lp4526
S'ethnic groups'
p4527
asVhttp://dbpedia.org/ontology/areaCode
p4528
g3494
sS'http://dbpedia.org/property/augPrecipitationMm'
p4529
(lp4530
S'Aug precipitation mm'
p4531
asS'http://dbpedia.org/property/mayHumidity'
p4532
(lp4533
S'May humidity'
p4534
asVhttp://dbpedia.org/property/bnfId
p4535
(lp4536
S'BnF identifier'
p4537
aS'Biblioth\xc3\xa8que nationale de France ID'
p4538
aS'BnF ID'
p4539
asS'http://dbpedia.org/property/mapCaption'
p4540
(lp4541
S'map caption'
p4542
asS'http://dbpedia.org/property/imageShield'
p4543
(lp4544
S'image shield'
p4545
asS'http://dbpedia.org/property/sepRainMm'
p4546
(lp4547
S'Sep rain mm'
p4548
asS'http://dbpedia.org/property/bodyStyle'
p4549
(lp4550
S'body style'
p4551
asS'http://dbpedia.org/ontology/guest'
p4552
(lp4553
S'guest'
p4554
asS'http://dbpedia.org/property/marLowC'
p4555
(lp4556
S'Mar low C'
p4557
asVhttp://dbpedia.org/property/apparentMagnitude
p4558
g511
sS'http://dbpedia.org/property/shipBuilder'
p4559
(lp4560
S'Ship builder'
p4561
asS'http://dbpedia.org/property/casualties'
p4562
(lp4563
S'casualties'
p4564
asVhttp://dbpedia.org/property/dcc
p4565
g1449
sVhttp://dbpedia.org/ontology/religion
p4566
g3797
sS'http://dbpedia.org/property/leaderTitle'
p4567
(lp4568
S'leader title'
p4569
asVhttp://dbpedia.org/property/iso31661Code
p4570
g1884
sS'http://dbpedia.org/property/hqLocation'
p4571
(lp4572
S'hq location'
p4573
asS'http://dbpedia.org/property/chief1Position'
p4574
(lp4575
S'chief1 position'
p4576
asVhttp://dbpedia.org/property/emblem
p4577
g1595
sS'http://dbpedia.org/property/votes'
p4578
(lp4579
S'votes'
p4580
asS'http://dbpedia.org/property/stat4value'
p4581
(lp4582
S'stat4value'
p4583
asS'http://dbpedia.org/property/hoftype'
p4584
(lp4585
S'hoftype'
p4586
asVhttp://dbpedia.org/property/coverArtist
p4587
g1952
sS'http://dbpedia.org/property/bridgeName'
p4588
(lp4589
S'bridge name'
p4590
asVhttp://dbpedia.org/property/crosses
p4591
g3549
sS'http://dbpedia.org/property/minister'
p4592
(lp4593
S'minister'
p4594
asS'http://dbpedia.org/property/billedFrom'
p4595
(lp4596
S'billed from'
p4597
asVhttp://dbpedia.org/property/generalManager
p4598
g1148
sS'http://dbpedia.org/property/finalfourcity'
p4599
(lp4600
S'FinalFourCity'
p4601
asVhttp://dbpedia.org/property/country
p4602
g1018
sS'http://dbpedia.org/ontology/combatant'
p4603
(lp4604
S'combatant'
p4605
asS'http://dbpedia.org/property/prevsupcity'
p4606
(lp4607
S'prevsupcity'
p4608
asVhttp://dbpedia.org/ontology/giniCoefficient
p4609
g1696
sS'http://dbpedia.org/property/formed'
p4610
(lp4611
S'formed'
p4612
asS'http://dbpedia.org/property/octHumidity'
p4613
(lp4614
S'Oct humidity'
p4615
asVhttp://dbpedia.org/resource/Mumbai_North_(Lok_Sabha_constituency)
p4616
(lp4617
S'Mumbai North (Lok Sabha constituency)'
p4618
asS'http://dbpedia.org/property/born'
p4619
(lp4620
S'Born'
p4621
asS'http://dbpedia.org/ontology/variantOf'
p4622
(lp4623
S'variant or variation'
p4624
asVhttp://dbpedia.org/ontology/genre
p4625
g2330
sS'http://dbpedia.org/property/highlights'
p4626
(lp4627
S'highlights'
p4628
asS'http://dbpedia.org/property/intl'
p4629
(lp4630
S'intl'
p4631
asVhttp://dbpedia.org/ontology/citizenship
p4632
g1582
sS'http://dbpedia.org/property/twin7Country'
p4633
(lp4634
S'twin7 country'
p4635
asS'http://dbpedia.org/property/distribution'
p4636
(lp4637
S'distribution'
p4638
asS'http://dbpedia.org/property/blankLabel'
p4639
(lp4640
S'blank label'
p4641
asS'http://dbpedia.org/property/frozenfourcity'
p4642
(lp4643
S'FrozenFourCity'
p4644
asS'http://dbpedia.org/property/cvrImage'
p4645
(lp4646
S'cvr image'
p4647
asS'http://dbpedia.org/property/sepSun'
p4648
(lp4649
S'Sep sun'
p4650
asS'http://dbpedia.org/property/imageLiquidMetalRocksJkArea'
p4651
(lp4652
S'image    liquid metal rocks jk\n  area'
p4653
asS'http://dbpedia.org/property/marRainMm'
p4654
(lp4655
S'Mar rain mm'
p4656
asS'http://dbpedia.org/property/target'
p4657
(lp4658
S'target'
p4659
asS'http://dbpedia.org/property/flagLink'
p4660
(lp4661
S'flag link'
p4662
asS'http://dbpedia.org/ontology/company'
p4663
(lp4664
S'company'
p4665
asS'http://dbpedia.org/property/commands'
p4666
(lp4667
S'commands'
p4668
asVhttp://dbpedia.org/ontology/iso6392Code
p4669
(lp4670
S'ISO 639-2 code'
p4671
aS'ISO639-2'
p4672
aS'iso639-2'
p4673
aS'iso 639-2'
p4674
asVhttp://dbpedia.org/ontology/spouse
p4675
g3711
sS'http://dbpedia.org/property/statYear'
p4676
(lp4677
S'stat year'
p4678
asVhttp://dbpedia.org/ontology/instrument
p4679
g627
sS'http://dbpedia.org/ontology/significantBuilding'
p4680
(lp4681
S'significant building'
p4682
asS'http://dbpedia.org/property/background'
p4683
(lp4684
S'background'
p4685
asS'http://dbpedia.org/property/points'
p4686
(lp4687
S'Points'
p4688
asS'http://dbpedia.org/property/descendentNames'
p4689
(lp4690
S'descendent names'
p4691
asS'http://dbpedia.org/property/homecountry'
p4692
(lp4693
S'homecountry'
p4694
asS'http://dbpedia.org/property/formercountry'
p4695
(lp4696
S'formercountry'
p4697
asS'http://dbpedia.org/property/imagecaption'
p4698
(lp4699
S'imagecaption'
p4700
asS'http://dbpedia.org/property/femaleIndividualChampionTeam'
p4701
(lp4702
S'female individual champion team'
p4703
asS'http://dbpedia.org/property/international'
p4704
(lp4705
S'international'
p4706
asS'http://dbpedia.org/ontology/recordedIn'
p4707
(lp4708
S'recorded in'
p4709
asS'http://dbpedia.org/property/commander1Label'
p4710
(lp4711
S'commander1 label'
p4712
asS'http://dbpedia.org/property/sights'
p4713
(lp4714
S'sights'
p4715
asS'http://dbpedia.org/property/firstLaunched'
p4716
(lp4717
S'first launched'
p4718
asVhttp://dbpedia.org/property/unloCode
p4719
g1404
sVhttp://dbpedia.org/ontology/endDate
p4720
g3160
sS'http://dbpedia.org/property/novSun'
p4721
(lp4722
S'Nov sun'
p4723
asS'http://dbpedia.org/property/janRecordLowC'
p4724
(lp4725
S'Jan record low C'
p4726
asS'http://dbpedia.org/property/carries'
p4727
(lp4728
S'carries'
p4729
asS'http://dbpedia.org/ontology/institution'
p4730
(lp4731
S'institution'
p4732
asS'http://dbpedia.org/property/languages'
p4733
(lp4734
S'Languages'
p4735
asS'http://dbpedia.org/property/addnlLocation'
p4736
(lp4737
S'addnl location'
p4738
asS'http://dbpedia.org/ontology/capacity'
p4739
(lp4740
S'capacity'
p4741
asS'http://dbpedia.org/property/aprHumidity'
p4742
(lp4743
S'Apr humidity'
p4744
asS'http://dbpedia.org/property/areaData'
p4745
(lp4746
S'area data'
p4747
asS'http://dbpedia.org/property/gdpNominalRank'
p4748
(lp4749
S'GDP nominal rank'
p4750
asS'http://dbpedia.org/property/showName'
p4751
(lp4752
S'show name'
p4753
asS'http://dbpedia.org/property/designation1Free1value'
p4754
(lp4755
S'designation1 free1value'
p4756
asS'http://dbpedia.org/property/successor'
p4757
(lp4758
S'successor'
p4759
asS'http://dbpedia.org/property/note'
p4760
(lp4761
S'note'
p4762
asS'http://dbpedia.org/property/nota'
p4763
(lp4764
S'nota'
p4765
asS'http://dbpedia.org/property/symbolType'
p4766
(lp4767
S'symbol type'
p4768
asS'http://dbpedia.org/property/width'
p4769
(lp4770
S'width'
p4771
asVhttp://dbpedia.org/ontology/editing
p4772
g278
sS'http://dbpedia.org/property/junLowC'
p4773
(lp4774
S'Jun low C'
p4775
asS'http://dbpedia.org/property/deathLocation'
p4776
(lp4777
S'death location'
p4778
asS'http://dbpedia.org/property/precededBy'
p4779
(lp4780
S'preceded by'
p4781
asS'http://dbpedia.org/ontology/leaderTitle'
p4782
(lp4783
S'leader title'
p4784
asS'http://dbpedia.org/property/workInstitution'
p4785
(lp4786
S'work institution'
p4787
asS'http://dbpedia.org/property/nearestTown'
p4788
(lp4789
S'nearest town'
p4790
asS'http://dbpedia.org/property/parties'
p4791
(lp4792
S'parties'
p4793
asS'http://dbpedia.org/ontology/railwayPlatforms'
p4794
(lp4795
S'railway platforms'
p4796
asS'http://dbpedia.org/property/julRainMm'
p4797
(lp4798
S'Jul rain mm'
p4799
asVhttp://dbpedia.org/ontology/creator
p4800
g1394
sS'http://dbpedia.org/property/tv'
p4801
(lp4802
S'tv'
p4803
asS'http://dbpedia.org/property/free'
p4804
(lp4805
S'free'
p4806
asS'http://dbpedia.org/property/statPop'
p4807
(lp4808
S'stat pop'
p4809
asS'http://dbpedia.org/property/colorists'
p4810
(lp4811
S'colorists'
p4812
asS'http://dbpedia.org/ontology/honours'
p4813
(lp4814
S'honours'
p4815
asS'http://dbpedia.org/property/highSchool'
p4816
(lp4817
S'high school'
p4818
asS'http://dbpedia.org/property/tl'
p4819
(lp4820
S'tl'
p4821
asS'http://dbpedia.org/property/nearE'
p4822
(lp4823
S'near-e'
p4824
asS'http://dbpedia.org/property/nationalMotto'
p4825
(lp4826
S'national motto'
p4827
asS'http://dbpedia.org/property/unitPref'
p4828
(lp4829
S'unit pref'
p4830
asS'http://dbpedia.org/ontology/motto'
p4831
(lp4832
S'motto'
p4833
asS'http://dbpedia.org/property/debut'
p4834
(lp4835
S'debut'
p4836
asS'http://dbpedia.org/property/northwest'
p4837
(lp4838
S'Northwest'
p4839
asS'http://dbpedia.org/property/network'
p4840
(lp4841
S'network'
p4842
asS'http://dbpedia.org/ontology/largestCity'
p4843
(lp4844
S'largest city'
p4845
asVhttp://dbpedia.org/property/nutsCode
p4846
(lp4847
S'NUTS code'
p4848
asS'http://dbpedia.org/property/headline'
p4849
(lp4850
S'headline'
p4851
asVhttp://dbpedia.org/ontology/amgid
p4852
g3671
sS'http://dbpedia.org/property/origin'
p4853
(lp4854
S'origin'
p4855
asVhttp://dbpedia.org/property/architecturalStyle
p4856
g1438
sS'http://dbpedia.org/ontology/numberOfSeasons'
p4857
(lp4858
S'number of seasons'
p4859
asS'http://dbpedia.org/property/awards'
p4860
(lp4861
S'awards'
p4862
asS'http://dbpedia.org/property/fullwidth'
p4863
(lp4864
S'fullwidth'
p4865
asS'http://dbpedia.org/property/patternRa'
p4866
(lp4867
S'pattern ra'
p4868
asS'http://dbpedia.org/property/blank1NameSec'
p4869
(lp4870
S'blank1 name sec'
p4871
asS'http://dbpedia.org/property/dateOfBirth'
p4872
(lp4873
S'date of birth'
p4874
asS'http://dbpedia.org/property/patternB'
p4875
(lp4876
S'pattern b'
p4877
asS'http://dbpedia.org/property/marRecordHighC'
p4878
(lp4879
S'Mar record high C'
p4880
asS'http://dbpedia.org/property/est'
p4881
(lp4882
S'est'
p4883
asS'http://dbpedia.org/property/editors'
p4884
(lp4885
S'editors'
p4886
asS'http://dbpedia.org/property/presenter'
p4887
(lp4888
S'presenter'
p4889
asVhttp://dbpedia.org/ontology/bnfId
p4890
g4536
sS'http://dbpedia.org/property/rallybase'
p4891
(lp4892
S'rallybase'
p4893
asS'http://dbpedia.org/property/publishingCountry'
p4894
(lp4895
S'publishing country'
p4896
asS'http://dbpedia.org/property/siteCityst'
p4897
(lp4898
S'site cityst'
p4899
asS'http://dbpedia.org/property/totalWidth'
p4900
(lp4901
S'total width'
p4902
asS'http://dbpedia.org/property/foodType'
p4903
(lp4904
S'food-type'
p4905
asS'http://dbpedia.org/property/markets'
p4906
(lp4907
S'markets'
p4908
asS'http://dbpedia.org/property/plays'
p4909
(lp4910
S'plays'
p4911
asS'http://dbpedia.org/ontology/district'
p4912
(lp4913
S'district'
p4914
asS'http://dbpedia.org/property/first'
p4915
(lp4916
S'first'
p4917
asS'http://dbpedia.org/property/shipNamesake'
p4918
(lp4919
S'Ship namesake'
p4920
asS'http://dbpedia.org/ontology/predecessor'
p4921
(lp4922
S'predecessor'
p4923
asS'http://dbpedia.org/property/swing'
p4924
(lp4925
S'swing'
p4926
asVhttp://dbpedia.org/property/constituency
p4927
(lp4928
S'constituency'
p4929
asS'http://dbpedia.org/property/finish'
p4930
(lp4931
S'finish'
p4932
asVhttp://dbpedia.org/property/computingPlatform
p4933
g1652
sS'http://dbpedia.org/property/bankOf'
p4934
(lp4935
S'bank of'
p4936
asS'http://dbpedia.org/property/seealso'
p4937
(lp4938
S'seealso'
p4939
asVhttp://dbpedia.org/ontology/namedAfter
p4940
g4334
sVhttp://dbpedia.org/ontology/individualisedGnd
p4941
(lp4942
S'DNB authorities'
p4943
aS'GND'
p4944
aS'Universal Authority File'
p4945
aS'dbpedia:IndividualisedGnd'
p4946
aS'GND identifier'
p4947
aS'PND'
p4948
aS'GND ID'
p4949
aS'Integrated Authority File'
p4950
asS'http://dbpedia.org/property/river'
p4951
(lp4952
S'river'
p4953
asS'http://dbpedia.org/property/febSun'
p4954
(lp4955
S'Feb sun'
p4956
asS'http://dbpedia.org/ontology/foundationPlace'
p4957
(lp4958
S'foundation place'
p4959
asS'http://dbpedia.org/ontology/museum'
p4960
(lp4961
S'museum'
p4962
asS'http://dbpedia.org/ontology/agencyStationCode'
p4963
(lp4964
S'agency station code'
p4965
asS'http://dbpedia.org/ontology/producer'
p4966
(lp4967
S'producer'
p4968
asVhttp://dbpedia.org/property/einecsNumber
p4969
g1686
sS'http://dbpedia.org/property/ci'
p4970
(lp4971
S'ci'
p4972
asS'http://dbpedia.org/property/destination'
p4973
(lp4974
S'destination'
p4975
asS'http://dbpedia.org/property/stations'
p4976
(lp4977
S'stations'
p4978
asS'http://dbpedia.org/property/predecessor'
p4979
(lp4980
S'predecessor'
p4981
asS'http://dbpedia.org/ontology/significantProject'
p4982
(lp4983
S'significant project'
p4984
asS'http://dbpedia.org/ontology/picture'
p4985
(lp4986
S'picture'
p4987
asS'http://dbpedia.org/property/aprPrecipitationDays'
p4988
(lp4989
S'Apr precipitation days'
p4990
asS'http://dbpedia.org/ontology/time'
p4991
(lp4992
S'time'
p4993
asS'http://dbpedia.org/property/established1Type'
p4994
(lp4995
S'established1 type'
p4996
asS'http://dbpedia.org/property/octRainMm'
p4997
(lp4998
S'Oct rain mm'
p4999
asS'http://dbpedia.org/property/timeZoneDst'
p5000
(lp5001
S'time zone DST'
p5002
asS'http://dbpedia.org/property/styleType'
p5003
(lp5004
S'style type'
p5005
asVhttp://dbpedia.org/resource/Roberto_Clemente_Bridge
p5006
(lp5007
S'Roberto Clemente Bridge'
p5008
asS'http://dbpedia.org/ontology/composer'
p5009
(lp5010
S'composer'
p5011
asS'http://dbpedia.org/property/hqLocationCity'
p5012
(lp5013
S'hq location city'
p5014
asVhttp://dbpedia.org/property/ndlId
p5015
g2225
sVhttp://dbpedia.org/property/launchVehicle
p5016
g670
sVhttp://dbpedia.org/property/illustrator
p5017
(lp5018
S'illustrated by'
p5019
aS'illustrator'
p5020
aS'illustration by'
p5021
asS'http://dbpedia.org/property/yearDeputy'
p5022
(lp5023
S'year deputy'
p5024
asVhttp://dbpedia.org/property/manager
p5025
g693
sS'http://dbpedia.org/property/numberOfShows'
p5026
(lp5027
S'number of shows'
p5028
asS'http://dbpedia.org/property/areaMagnitude'
p5029
(lp5030
S'area magnitude'
p5031
asS'http://dbpedia.org/property/width1Imperial'
p5032
(lp5033
S'width1 imperial'
p5034
asS'http://dbpedia.org/property/garrison'
p5035
(lp5036
S'garrison'
p5037
asS'http://dbpedia.org/property/operations'
p5038
(lp5039
S'operations'
p5040
asS'http://dbpedia.org/property/blank1Info'
p5041
(lp5042
S'blank1 info'
p5043
asS'http://dbpedia.org/property/series'
p5044
(lp5045
S'series'
p5046
asS'http://dbpedia.org/property/rd2t4Loc'
p5047
(lp5048
S'RD2T4-loc'
p5049
asS'http://dbpedia.org/property/tenants'
p5050
(lp5051
S'tenants'
p5052
asS'http://dbpedia.org/property/populationUrban'
p5053
(lp5054
S'population urban'
p5055
asS'http://dbpedia.org/property/populationEstimateRank'
p5056
(lp5057
S'population estimate rank'
p5058
asS'http://dbpedia.org/property/sourceConfluenceLocation'
p5059
(lp5060
S'source confluence location'
p5061
asS'http://dbpedia.org/property/characters'
p5062
(lp5063
S'characters'
p5064
asS'http://dbpedia.org/property/locationSpecial'
p5065
(lp5066
S'location special'
p5067
asS'http://dbpedia.org/property/bronze'
p5068
(lp5069
S'bronze'
p5070
asS'http://dbpedia.org/property/withdraws'
p5071
(lp5072
S'withdraws'
p5073
asS'http://dbpedia.org/property/bridge'
p5074
(lp5075
S'bridge'
p5076
asS'http://dbpedia.org/property/metropolitan'
p5077
(lp5078
S'metropolitan'
p5079
asS'http://dbpedia.org/ontology/serviceNumber'
p5080
(lp5081
S'service number'
p5082
asS'http://dbpedia.org/ontology/censusYear'
p5083
(lp5084
S'census year'
p5085
asS'http://dbpedia.org/ontology/numberOfEpisodes'
p5086
(lp5087
S'number of episodes'
p5088
asS'http://dbpedia.org/property/platform'
p5089
(lp5090
S'platform'
p5091
asVhttp://dbpedia.org/property/headquarter
p5092
(lp5093
S'headquarters location'
p5094
aS'HQ'
p5095
aS'seat'
p5096
aS'admin HQ'
p5097
aS'head office location'
p5098
aS'principle office'
p5099
aS'garrison'
p5100
asS'http://dbpedia.org/property/pictureCaption'
p5101
(lp5102
S'picture caption'
p5103
asS'http://dbpedia.org/property/octSun'
p5104
(lp5105
S'Oct sun'
p5106
asS'http://dbpedia.org/property/heightType'
p5107
(lp5108
S'height type'
p5109
asS'http://dbpedia.org/property/availability'
p5110
(lp5111
S'availability'
p5112
asS'http://dbpedia.org/property/borderS'
p5113
(lp5114
S'border s'
p5115
asS'http://dbpedia.org/property/head'
p5116
(lp5117
S'head'
p5118
asS'http://dbpedia.org/property/secondTeam'
p5119
(lp5120
S'Second team'
p5121
asS'http://dbpedia.org/property/popularity'
p5122
(lp5123
S'popularity'
p5124
asS'http://dbpedia.org/property/southwest'
p5125
(lp5126
S'Southwest'
p5127
asS'http://dbpedia.org/property/distance'
p5128
(lp5129
S'distance'
p5130
asVhttp://dbpedia.org/ontology/inseeCode
p5131
g3230
sS'http://dbpedia.org/property/wheelbase'
p5132
(lp5133
S'wheelbase'
p5134
asS'http://dbpedia.org/property/almaMater'
p5135
(lp5136
S'alma mater'
p5137
asVhttp://dbpedia.org/resource/Bill_Finger
p5138
(lp5139
S'Bill Finger'
p5140
asVhttp://dbpedia.org/ontology/maintainedBy
p5141
(lp5142
S'administrator'
p5143
aS'maintainer'
p5144
aS'custodian'
p5145
aS'maintenance'
p5146
aS'maintained by'
p5147
aS'administered by'
p5148
asS'http://dbpedia.org/property/discharge'
p5149
(lp5150
S'discharge'
p5151
asS'http://dbpedia.org/ontology/jurisdiction'
p5152
(lp5153
S'jurisdiction'
p5154
asVhttp://dbpedia.org/ontology/team
p5155
(lp5156
S'team played for'
p5157
aS'member of sports team'
p5158
aS'of team'
p5159
aS'member of team'
p5160
aS'teams played for'
p5161
aS'team'
p5162
aS'plays for'
p5163
aS'played for'
p5164
aS'club played for'
p5165
asS'http://dbpedia.org/ontology/thirdDriverCountry'
p5166
(lp5167
S'third driver country'
p5168
asS'http://dbpedia.org/property/pubSeries'
p5169
(lp5170
S'pub series'
p5171
asS'http://dbpedia.org/property/survey'
p5172
(lp5173
S'survey'
p5174
asVhttp://dbpedia.org/ontology/followedBy
p5175
g4473
sS'http://dbpedia.org/property/post'
p5176
(lp5177
S'Post'
p5178
asS'http://dbpedia.org/property/latns'
p5179
(lp5180
S'latNS'
p5181
asVhttp://dbpedia.org/ontology/ideology
p5182
g2495
sS'http://dbpedia.org/property/iso3166code'
p5183
(lp5184
S'iso3166code'
p5185
asVhttp://dbpedia.org/ontology/crewMember
p5186
g3791
sS'http://dbpedia.org/property/perps'
p5187
(lp5188
S'perps'
p5189
asS'http://dbpedia.org/property/armiger'
p5190
(lp5191
S'armiger'
p5192
asS'http://dbpedia.org/property/junRecordLowC'
p5193
(lp5194
S'Jun record low C'
p5195
asS'http://dbpedia.org/property/company'
p5196
(lp5197
S'company'
p5198
asVhttp://dbpedia.org/ontology/deathDate
p5199
g2311
sS'http://dbpedia.org/property/controlledby'
p5200
(lp5201
S'controlledby'
p5202
asS'http://dbpedia.org/ontology/firstDriver'
p5203
(lp5204
S'first driver'
p5205
asS'http://dbpedia.org/property/parents'
p5206
(lp5207
S'parents'
p5208
asS'http://dbpedia.org/property/populationCensusRank'
p5209
(lp5210
S'population census rank'
p5211
asVhttp://dbpedia.org/ontology/elo
p5212
g1178
sS'http://dbpedia.org/property/subcatPub'
p5213
(lp5214
S'subcat pub'
p5215
asS'http://dbpedia.org/property/aprRainMm'
p5216
(lp5217
S'Apr rain mm'
p5218
asS'http://dbpedia.org/property/fullheight'
p5219
(lp5220
S'fullheight'
p5221
asVhttp://dbpedia.org/ontology/bibsysId
p5222
g1248
sS'http://dbpedia.org/property/limsub'
p5223
(lp5224
S'limsub'
p5225
asS'http://dbpedia.org/ontology/garrison'
p5226
(lp5227
S'garrison'
p5228
asS'http://dbpedia.org/property/roadvenue'
p5229
(lp5230
S'roadvenue'
p5231
asS'http://dbpedia.org/property/minister3Name'
p5232
(lp5233
S'minister3 name'
p5234
asS'http://dbpedia.org/property/other'
p5235
(lp5236
S'Other'
p5237
asS'http://dbpedia.org/ontology/weight'
p5238
(lp5239
S'weight (g)'
p5240
asS'http://dbpedia.org/property/serviceArea'
p5241
(lp5242
S'service area'
p5243
asS'http://dbpedia.org/property/mmcountry'
p5244
(lp5245
S'mmcountry'
p5246
asS'http://dbpedia.org/property/gr'
p5247
(lp5248
S'gr'
p5249
asS'http://dbpedia.org/property/timeZone'
p5250
(lp5251
S'time zone'
p5252
asS'http://dbpedia.org/property/preceding'
p5253
(lp5254
S'preceding'
p5255
asVhttp://dbpedia.org/property/maintainedBy
p5256
g5142
sS'http://dbpedia.org/property/gi'
p5257
(lp5258
S'GI'
p5259
asS'http://dbpedia.org/property/gf'
p5260
(lp5261
S'gf'
p5262
asS'http://dbpedia.org/property/meetingPlace'
p5263
(lp5264
S'meeting place'
p5265
asS'http://dbpedia.org/property/birthPlaxe'
p5266
(lp5267
S'birth plaxe'
p5268
asS'http://dbpedia.org/property/ga'
p5269
(lp5270
S'ga'
p5271
asS'http://dbpedia.org/property/augRecordLowC'
p5272
(lp5273
S'Aug record low C'
p5274
asS'http://dbpedia.org/ontology/bridgeCarries'
p5275
(lp5276
S'bridge carries'
p5277
asS'http://dbpedia.org/property/hofvote'
p5278
(lp5279
S'hofvote'
p5280
asS'http://dbpedia.org/property/institution'
p5281
(lp5282
S'institution'
p5283
asS'http://dbpedia.org/property/yearHumidity'
p5284
(lp5285
S'year humidity'
p5286
asS'http://dbpedia.org/property/zone'
p5287
(lp5288
S'zone'
p5289
asS'http://dbpedia.org/property/endishyr'
p5290
(lp5291
S'endishyr'
p5292
asS'http://dbpedia.org/property/officialLanguages'
p5293
(lp5294
S'official languages'
p5295
asVhttp://dbpedia.org/ontology/terytCode
p5296
g3556
sS'http://dbpedia.org/property/legend'
p5297
(lp5298
S'legend'
p5299
asS'http://dbpedia.org/property/below'
p5300
(lp5301
S'below'
p5302
asS'http://dbpedia.org/ontology/successor'
p5303
(lp5304
S'successor'
p5305
asS'http://dbpedia.org/property/areaKm'
p5306
(lp5307
S'area km'
p5308
asS'http://dbpedia.org/property/pencillers'
p5309
(lp5310
S'pencillers'
p5311
asVhttp://dbpedia.org/resource/Broadmeadows,_Victoria
p5312
(lp5313
S'Broadmeadows, Victoria'
p5314
asVhttp://dbpedia.org/ontology/icaoAirlineCode
p5315
(lp5316
S'International Civil Aviation Organization airline designator'
p5317
aS'ICAO airline designator'
p5318
asS'http://dbpedia.org/property/pregnancyCategory'
p5319
(lp5320
S'pregnancy category'
p5321
asS'http://dbpedia.org/property/mpParty'
p5322
(lp5323
S'mp-party'
p5324
asS'http://dbpedia.org/property/engine'
p5325
(lp5326
S'engine'
p5327
asS'http://dbpedia.org/ontology/publisher'
p5328
(lp5329
S'publisher'
p5330
asS'http://dbpedia.org/ontology/causalties'
p5331
(lp5332
S'causalties'
p5333
asS'http://dbpedia.org/property/prev'
p5334
(lp5335
S'Prev'
p5336
asS'http://dbpedia.org/property/plane1Origin'
p5337
(lp5338
S'plane1 origin'
p5339
asS'http://dbpedia.org/ontology/person'
p5340
(lp5341
S'person'
p5342
asS'http://dbpedia.org/property/launchLocation'
p5343
(lp5344
S'launch location'
p5345
asVhttp://dbpedia.org/ontology/manufacturer
p5346
g1310
sS'http://dbpedia.org/ontology/homeArena'
p5347
(lp5348
S'home arena'
p5349
asVhttp://dbpedia.org/ontology/lccnId
p5350
g3597
sS'http://dbpedia.org/property/decHighC'
p5351
(lp5352
S'Dec high C'
p5353
asS'http://dbpedia.org/property/chief2Position'
p5354
(lp5355
S'chief2 position'
p5356
asS'http://dbpedia.org/ontology/firstDriverCountry'
p5357
(lp5358
S'first driver country'
p5359
asS'http://dbpedia.org/ontology/division'
p5360
(lp5361
S'division'
p5362
asS'http://dbpedia.org/property/deathDeath'
p5363
(lp5364
S'death death'
p5365
asS'http://dbpedia.org/property/janPrecipitationMm'
p5366
(lp5367
S'Jan precipitation mm'
p5368
asS'http://dbpedia.org/property/hoflink'
p5369
(lp5370
S'hoflink'
p5371
asS'http://dbpedia.org/property/nationalCuisine'
p5372
(lp5373
S'national cuisine'
p5374
asS'http://dbpedia.org/property/length1Imperial'
p5375
(lp5376
S'length1 imperial'
p5377
asVhttp://dbpedia.org/ontology/placeOfBurial
p5378
g3128
sS'http://dbpedia.org/property/headquarters'
p5379
(lp5380
S'headquarters'
p5381
asS'http://dbpedia.org/property/countryName'
p5382
(lp5383
S'country name'
p5384
asVhttp://dbpedia.org/ontology/cosparId
p5385
g4187
sS'http://dbpedia.org/ontology/wikiPageOutDegree'
p5386
(lp5387
S'Wiki page out degree'
p5388
asS'http://dbpedia.org/property/twin2Country'
p5389
(lp5390
S'twin2 country'
p5391
asS'http://dbpedia.org/property/timezoneDst'
p5392
(lp5393
S'timezone DST'
p5394
asVhttp://dbpedia.org/ontology/colour
p5395
g4193
sS'http://dbpedia.org/property/arena'
p5396
(lp5397
S'arena'
p5398
asS'http://dbpedia.org/property/twin1Country'
p5399
(lp5400
S'twin1 country'
p5401
asVhttp://dbpedia.org/ontology/sex
p5402
g2466
sVhttp://dbpedia.org/resource/Pavel_Moroz
p5403
(lp5404
S'Pavel Moroz'
p5405
asS'http://dbpedia.org/property/children'
p5406
(lp5407
S'children'
p5408
asS'http://dbpedia.org/property/largestCity'
p5409
(lp5410
S'largest city'
p5411
asS'http://dbpedia.org/property/shipCountry'
p5412
(lp5413
S'Ship country'
p5414
asS'http://dbpedia.org/ontology/ethnicGroup'
p5415
(lp5416
S'ethnic group'
p5417
asS'http://dbpedia.org/property/authorType'
p5418
(lp5419
S'author type'
p5420
asS'http://dbpedia.org/property/supports'
p5421
(lp5422
S'supports'
p5423
asS'http://dbpedia.org/property/letterers'
p5424
(lp5425
S'letterers'
p5426
asVhttp://dbpedia.org/property/icaoLocationIdentifier
p5427
g2920
sS'http://dbpedia.org/property/foundedDate'
p5428
(lp5429
S'founded date'
p5430
asS'http://dbpedia.org/property/gdpNominalPerCapita'
p5431
(lp5432
S'GDP nominal per capita'
p5433
asS'http://dbpedia.org/property/areaLabel'
p5434
(lp5435
S'area label'
p5436
asS'http://dbpedia.org/property/aprPrecipitationMm'
p5437
(lp5438
S'Apr precipitation mm'
p5439
asS'http://dbpedia.org/property/firstAired'
p5440
(lp5441
S'first aired'
p5442
asS'http://dbpedia.org/property/titleFnt'
p5443
(lp5444
S'title fnt'
p5445
asS'http://dbpedia.org/property/openingDate'
p5446
(lp5447
S'opening date'
p5448
asS'http://dbpedia.org/property/1stishyr'
p5449
(lp5450
S'1stishyr'
p5451
asVhttp://dbpedia.org/ontology/iso6391Code
p5452
g1732
sS'http://dbpedia.org/property/workplaces'
p5453
(lp5454
S'workplaces'
p5455
asVhttp://dbpedia.org/property/iso6392Code
p5456
g4670
sS'http://dbpedia.org/property/homecity'
p5457
(lp5458
S'homecity'
p5459
asVhttp://dbpedia.org/property/isil
p5460
g4521
sS'http://dbpedia.org/property/order'
p5461
(lp5462
S'order'
p5463
asS'http://dbpedia.org/ontology/mouthRegion'
p5464
(lp5465
S'mouth region'
p5466
asS'http://dbpedia.org/property/tourneyName'
p5467
(lp5468
S'tourney name'
p5469
asS'http://dbpedia.org/property/sortTitle'
p5470
(lp5471
S'sort title'
p5472
asS'http://dbpedia.org/property/countryTs'
p5473
(lp5474
S'country ts'
p5475
asS'http://dbpedia.org/property/length3Imperial'
p5476
(lp5477
S'length3 imperial'
p5478
asS'http://dbpedia.org/property/debutmo'
p5479
(lp5480
S'debutmo'
p5481
asS'http://dbpedia.org/property/populationMetro'
p5482
(lp5483
S'population metro'
p5484
asS'http://dbpedia.org/property/footnoteA'
p5485
(lp5486
S'footnote a'
p5487
asS'http://dbpedia.org/property/dateStart'
p5488
(lp5489
S'date start'
p5490
asS'http://dbpedia.org/property/footnoteC'
p5491
(lp5492
S'footnote c'
p5493
asS'http://dbpedia.org/property/footnoteB'
p5494
(lp5495
S'footnote b'
p5496
asS'http://dbpedia.org/property/placeofburial'
p5497
(lp5498
S'placeofburial'
p5499
asS'http://dbpedia.org/property/footnoteD'
p5500
(lp5501
S'footnote d'
p5502
asVhttp://dbpedia.org/property/team
p5503
g5156
sS'http://dbpedia.org/property/yearPrecipitationDays'
p5504
(lp5505
S'Year precipitation days'
p5506
asS'http://dbpedia.org/ontology/position'
p5507
(lp5508
S'position'
p5509
asS'http://dbpedia.org/property/upperHouse'
p5510
(lp5511
S'upper house'
p5512
asS'http://dbpedia.org/property/event'
p5513
(lp5514
S'event'
p5515
asS'http://dbpedia.org/property/col1width'
p5516
(lp5517
S'col1width'
p5518
asS'http://dbpedia.org/property/elevation'
p5519
(lp5520
S'elevation'
p5521
asS'http://dbpedia.org/property/last'
p5522
(lp5523
S'last'
p5524
asS'http://dbpedia.org/property/areaPercentage'
p5525
(lp5526
S'area percentage'
p5527
asS'http://dbpedia.org/property/partof'
p5528
(lp5529
S'partof'
p5530
asS'http://dbpedia.org/property/location'
p5531
(lp5532
S'Location'
p5533
asS'http://dbpedia.org/property/structure'
p5534
(lp5535
S'structure'
p5536
asS'http://dbpedia.org/property/disbanded'
p5537
(lp5538
S'disbanded'
p5539
asS'http://dbpedia.org/property/managerclubs'
p5540
(lp5541
S'managerclubs'
p5542
asS'http://dbpedia.org/property/shipRegistry'
p5543
(lp5544
S'Ship registry'
p5545
asS'http://dbpedia.org/property/falsework'
p5546
(lp5547
S'falsework'
p5548
asS'http://dbpedia.org/property/infoHdr'
p5549
(lp5550
S'info-hdr'
p5551
asS'http://dbpedia.org/property/homeBase'
p5552
(lp5553
S'home base'
p5554
asS'http://dbpedia.org/ontology/timeZone'
p5555
(lp5556
S'time zone'
p5557
asS'http://dbpedia.org/property/olympicPlace'
p5558
(lp5559
S'olympic place'
p5560
asS'http://dbpedia.org/property/rd3t1Loc'
p5561
(lp5562
S'RD3T1-loc'
p5563
asVhttp://dbpedia.org/property/originalLanguage
p5564
g555
sS'http://dbpedia.org/property/imageFlag'
p5565
(lp5566
S'image flag'
p5567
asS'http://dbpedia.org/property/enrolment'
p5568
(lp5569
S'enrolment'
p5570
asS'http://dbpedia.org/property/decSun'
p5571
(lp5572
S'Dec sun'
p5573
asS'http://dbpedia.org/property/stategov'
p5574
(lp5575
S'stategov'
p5576
asS'http://dbpedia.org/property/people'
p5577
(lp5578
S'people'
p5579
asS'http://dbpedia.org/property/etymology'
p5580
(lp5581
S'etymology'
p5582
asVhttp://dbpedia.org/property/continent
p5583
g3992
sS'http://dbpedia.org/ontology/owningOrganisation'
p5584
(lp5585
S'owning organisation'
p5586
asVhttp://dbpedia.org/ontology/flag
p5587
g3687
sS'http://dbpedia.org/property/unit'
p5588
(lp5589
S'unit'
p5590
asS'http://dbpedia.org/property/primaryDeity'
p5591
(lp5592
S'primary deity'
p5593
asS'http://dbpedia.org/property/parliament'
p5594
(lp5595
S'parliament'
p5596
asVhttp://dbpedia.org/ontology/alias
p5597
g1670
sVhttp://dbpedia.org/property/handedness
p5598
g1758
sS'http://dbpedia.org/property/shortDescription'
p5599
(lp5600
S'short description'
p5601
asS'http://dbpedia.org/property/service'
p5602
(lp5603
S'service'
p5604
asS'http://dbpedia.org/property/leftarm'
p5605
(lp5606
S'leftarm'
p5607
asVhttp://dbpedia.org/property/developer
p5608
g2571
sS'http://dbpedia.org/property/numberType'
p5609
(lp5610
S'number type'
p5611
asS'http://dbpedia.org/property/marRainDays'
p5612
(lp5613
S'Mar rain days'
p5614
asS'http://dbpedia.org/property/cvrCaption'
p5615
(lp5616
S'cvr caption'
p5617
asS'http://dbpedia.org/property/kingdom'
p5618
(lp5619
S'kingdom'
p5620
asS'http://dbpedia.org/ontology/race'
p5621
(lp5622
S'race'
p5623
asVhttp://dbpedia.org/ontology/orientation
p5624
g1726
sS'http://dbpedia.org/property/nationalOrigin'
p5625
(lp5626
S'national origin'
p5627
asS'http://dbpedia.org/property/percentage'
p5628
(lp5629
S'percentage'
p5630
asS'http://dbpedia.org/property/imageMap'
p5631
(lp5632
S'image map'
p5633
asS'http://dbpedia.org/property/part1Choice'
p5634
(lp5635
S'part1 choice'
p5636
asS'http://dbpedia.org/ontology/width'
p5637
(lp5638
S'width ()'
p5639
asS'http://dbpedia.org/property/area'
p5640
(lp5641
S'area'
p5642
asS'http://dbpedia.org/property/yearHighC'
p5643
(lp5644
S'year high C'
p5645
asVhttp://dbpedia.org/ontology/meshId
p5646
g2608
sVhttp://dbpedia.org/ontology/isniId
p5647
g310
sS'http://dbpedia.org/property/color'
p5648
(lp5649
S'color'
p5650
asS'http://dbpedia.org/property/school'
p5651
(lp5652
S'school'
p5653
asS'http://dbpedia.org/property/candidate'
p5654
(lp5655
S'candidate'
p5656
asS'http://dbpedia.org/property/lo%23ationCountry'
p5657
(lp5658
S'lo#ation country'
p5659
asS'http://dbpedia.org/property/floors'
p5660
(lp5661
S'floors'
p5662
asS'http://dbpedia.org/ontology/locatedInArea'
p5663
(lp5664
S'located in area'
p5665
asS'http://dbpedia.org/property/line'
p5666
(lp5667
S'line'
p5668
asS'http://dbpedia.org/property/febHighC'
p5669
(lp5670
S'Feb high C'
p5671
asS'http://dbpedia.org/property/staff'
p5672
(lp5673
S'staff'
p5674
asS'http://dbpedia.org/property/territory'
p5675
(lp5676
S'territory'
p5677
asS'http://dbpedia.org/property/alt'
p5678
(lp5679
S'alt'
p5680
asS'http://dbpedia.org/property/championshipPlace'
p5681
(lp5682
S'championship place'
p5683
asS'http://dbpedia.org/property/ownership'
p5684
(lp5685
S'ownership'
p5686
asS'http://dbpedia.org/property/governingBody'
p5687
(lp5688
S'governing body'
p5689
asVhttp://dbpedia.org/ontology/parentOrganisation
p5690
(lp5691
S'parent organisation'
p5692
asS'http://dbpedia.org/property/designation'
p5693
(lp5694
S'designation'
p5695
asS'http://dbpedia.org/property/campus'
p5696
(lp5697
S'campus'
p5698
asS'http://dbpedia.org/property/headLabel'
p5699
(lp5700
S'head label'
p5701
asS'http://dbpedia.org/ontology/chairman'
p5702
(lp5703
S'chairman'
p5704
asS'http://dbpedia.org/ontology/role'
p5705
(lp5706
S'role'
p5707
asS'http://dbpedia.org/property/rightTribs'
p5708
(lp5709
S'right tribs'
p5710
asS'http://dbpedia.org/property/dateEnd'
p5711
(lp5712
S'date end'
p5713
asS'http://dbpedia.org/property/homeworld'
p5714
(lp5715
S'homeworld'
p5716
asVhttp://dbpedia.org/property/architect
p5717
(lp5718
S'architect'
p5719
asS'http://dbpedia.org/property/practicingCountries'
p5720
(lp5721
S'Practicing countries'
p5722
asS'http://dbpedia.org/ontology/keyPerson'
p5723
(lp5724
S'key person'
p5725
asS'http://dbpedia.org/property/noOfTeams'
p5726
(lp5727
S'no of teams'
p5728
asS'http://dbpedia.org/property/design'
p5729
(lp5730
S'design'
p5731
asVhttp://dbpedia.org/ontology/iso6393Code
p5732
g2040
sVhttp://dbpedia.org/ontology/istat
p5733
(lp5734
S'ISTAT ID'
p5735
asS'http://dbpedia.org/property/winner'
p5736
(lp5737
S'winner'
p5738
asS'http://dbpedia.org/property/recorded'
p5739
(lp5740
S'Recorded'
p5741
asVhttp://dbpedia.org/ontology/currency
p5742
g2297
sS'http://dbpedia.org/property/gdpNominalYear'
p5743
(lp5744
S'GDP nominal year'
p5745
asS'http://dbpedia.org/property/augLowC'
p5746
(lp5747
S'Aug low C'
p5748
asS'http://dbpedia.org/property/pictureWidth'
p5749
(lp5750
S'picture width'
p5751
asVhttp://dbpedia.org/ontology/distributor
p5752
g3431
sVhttp://dbpedia.org/ontology/industry
p5753
g482
sS'http://dbpedia.org/property/headquartered'
p5754
(lp5755
S'headquartered'
p5756
asS'http://dbpedia.org/property/trainingFrom'
p5757
(lp5758
S'Training from'
p5759
asS'http://dbpedia.org/property/novRainDays'
p5760
(lp5761
S'Nov rain days'
p5762
asS'http://dbpedia.org/property/formerNames'
p5763
(lp5764
S'former names'
p5765
asS'http://dbpedia.org/ontology/notableCommander'
p5766
(lp5767
S'notable commander'
p5768
asS'http://dbpedia.org/property/bats'
p5769
(lp5770
S'bats'
p5771
asS'http://dbpedia.org/property/finalyear'
p5772
(lp5773
S'finalyear'
p5774
asS'http://dbpedia.org/property/countryCode'
p5775
(lp5776
S'country code'
p5777
asVhttp://dbpedia.org/ontology/killedBy
p5778
g1915
sVhttp://dbpedia.org/ontology/deathCause
p5779
g3521
sS'http://dbpedia.org/ontology/network'
p5780
(lp5781
S'network'
p5782
asS'http://dbpedia.org/property/demographicsType'
p5783
(lp5784
S'demographics type'
p5785
asS'http://dbpedia.org/property/club'
p5786
(lp5787
S'club'
p5788
asS'http://dbpedia.org/property/president'
p5789
(lp5790
S'President'
p5791
asS'http://dbpedia.org/property/hdiYear'
p5792
(lp5793
S'HDI year'
p5794
asS'http://dbpedia.org/property/areaSqMi'
p5795
(lp5796
S'area sq mi'
p5797
asS'http://dbpedia.org/ontology/runtime'
p5798
(lp5799
S'runtime (s)'
p5800
asS'http://dbpedia.org/property/utcDst'
p5801
(lp5802
S'utc-dst'
p5803
asS'http://dbpedia.org/ontology/province'
p5804
(lp5805
S'province'
p5806
asS'http://dbpedia.org/property/dist'
p5807
(lp5808
S'dist'
p5809
asS'http://dbpedia.org/property/populationCensus'
p5810
(lp5811
S'population census'
p5812
asS'http://dbpedia.org/property/homeTown'
p5813
(lp5814
S'home town'
p5815
asVhttp://dbpedia.org/property/settlement
p5816
g3022
sS'http://dbpedia.org/property/voicedBy'
p5817
(lp5818
S'voiced by'
p5819
asS'http://dbpedia.org/property/isoRegion'
p5820
(lp5821
S'iso region'
p5822
asS'http://dbpedia.org/property/junRainDays'
p5823
(lp5824
S'Jun rain days'
p5825
asS'http://dbpedia.org/property/statArea'
p5826
(lp5827
S'stat area'
p5828
asS'http://dbpedia.org/property/municipality'
p5829
(lp5830
S'municipality'
p5831
asS'http://dbpedia.org/property/picture'
p5832
(lp5833
S'picture'
p5834
asS'http://dbpedia.org/property/locatiion'
p5835
(lp5836
S'locatiion'
p5837
asS'http://dbpedia.org/property/right'
p5838
(lp5839
S'right'
p5840
asS'http://dbpedia.org/ontology/riverMouth'
p5841
(lp5842
S'river mouth'
p5843
asS'http://dbpedia.org/property/otherName'
p5844
(lp5845
S'other name'
p5846
asS'http://dbpedia.org/property/densitySqMi'
p5847
(lp5848
S'density sq mi'
p5849
asS'http://dbpedia.org/property/mapLocator'
p5850
(lp5851
S'map locator'
p5852
asS'http://dbpedia.org/ontology/staff'
p5853
(lp5854
S'staff'
p5855
asS'http://dbpedia.org/ontology/dissolutionDate'
p5856
(lp5857
S'dissolution date'
p5858
asS'http://dbpedia.org/property/cube'
p5859
(lp5860
S'cube'
p5861
asVhttp://dbpedia.org/ontology/architect
p5862
g5718
sS'http://dbpedia.org/property/alternativeNames'
p5863
(lp5864
S'ALTERNATIVE NAMES'
p5865
asS'http://dbpedia.org/ontology/nearestCity'
p5866
(lp5867
S'nearest city'
p5868
asS'http://dbpedia.org/property/novHighC'
p5869
(lp5870
S'Nov high C'
p5871
asS'http://dbpedia.org/property/office'
p5872
(lp5873
S'office'
p5874
asS'http://dbpedia.org/property/rd2t2Loc'
p5875
(lp5876
S'RD2T2-loc'
p5877
asS'http://dbpedia.org/property/termStart'
p5878
(lp5879
S'term start'
p5880
asVhttp://dbpedia.org/property/deathPlace
p5881
g1554
sS'http://dbpedia.org/property/managementType'
p5882
(lp5883
S'management type'
p5884
asS'http://dbpedia.org/property/nationalTeam'
p5885
(lp5886
S'national team'
p5887
asS'http://dbpedia.org/property/hdiRank'
p5888
(lp5889
S'HDI rank'
p5890
asS'http://dbpedia.org/property/forceNationalMap'
p5891
(lp5892
S'force national map'
p5893
asS'http://dbpedia.org/property/rd1t6Loc'
p5894
(lp5895
S'RD1T6-loc'
p5896
asS'http://dbpedia.org/property/silver'
p5897
(lp5898
S'silver'
p5899
asS'http://dbpedia.org/ontology/almaMater'
p5900
(lp5901
S'alma mater'
p5902
asS'http://dbpedia.org/property/seat'
p5903
(lp5904
S'seat'
p5905
asS'http://dbpedia.org/property/rd1t1Loc'
p5906
(lp5907
S'RD1T1-loc'
p5908
asS'http://dbpedia.org/property/attendance'
p5909
(lp5910
S'attendance'
p5911
asS'http://dbpedia.org/property/seal'
p5912
(lp5913
S'Seal'
p5914
asS'http://dbpedia.org/ontology/field'
p5915
(lp5916
S'field'
p5917
asVhttp://dbpedia.org/ontology/iataAirlineCode
p5918
g1864
sVhttp://dbpedia.org/ontology/rkdArtistsId
p5919
g2981
sS'http://dbpedia.org/property/deputy'
p5920
(lp5921
S'deputy'
p5922
asS'http://dbpedia.org/ontology/PopulatedPlace/areaTotal'
p5923
(lp5924
S'area total (km2)'
p5925
asS'http://dbpedia.org/property/dateEvent'
p5926
(lp5927
S'date event'
p5928
asVhttp://dbpedia.org/property/ethnicity
p5929
g2511
sS'http://dbpedia.org/ontology/veneratedIn'
p5930
(lp5931
S'venerated in'
p5932
asS'http://dbpedia.org/property/augRainMm'
p5933
(lp5934
S'Aug rain mm'
p5935
asS'http://dbpedia.org/ontology/distributingLabel'
p5936
(lp5937
S'distributing label'
p5938
asS'http://dbpedia.org/property/codeName'
p5939
(lp5940
S'code name'
p5941
asS'http://dbpedia.org/property/establishedEvent'
p5942
(lp5943
S'established event'
p5944
asS'http://dbpedia.org/property/language'
p5945
(lp5946
S'language'
p5947
asS'http://dbpedia.org/property/largestCityWl'
p5948
(lp5949
S'largest city wl'
p5950
asS'http://dbpedia.org/ontology/areaTotal'
p5951
(lp5952
S'area total (m2)'
p5953
asVhttp://dbpedia.org/ontology/anthem
p5954
g3839
sS'http://dbpedia.org/property/gdpPpp'
p5955
(lp5956
S'GDP PPP'
p5957
asS'http://dbpedia.org/ontology/club'
p5958
(lp5959
S'club'
p5960
asS'http://dbpedia.org/property/leftTribs'
p5961
(lp5962
S'left tribs'
p5963
asS'http://dbpedia.org/property/cyclists'
p5964
(lp5965
S'cyclists'
p5966
asVhttp://dbpedia.org/ontology/nutsCode
p5967
g4847
sS'http://dbpedia.org/ontology/state'
p5968
(lp5969
S'state'
p5970
asS'http://dbpedia.org/property/octRainDays'
p5971
(lp5972
S'Oct rain days'
p5973
asS'http://dbpedia.org/property/downstream'
p5974
(lp5975
S'downstream'
p5976
asVhttp://dbpedia.org/ontology/illustrator
p5977
g5018
sS'http://dbpedia.org/property/gdpPppPerCapitaRank'
p5978
(lp5979
S'GDP PPP per capita rank'
p5980
asS'http://dbpedia.org/property/foundingLocation'
p5981
(lp5982
S'founding location'
p5983
asS'http://dbpedia.org/ontology/profession'
p5984
(lp5985
S'profession'
p5986
asS'http://dbpedia.org/property/theme'
p5987
(lp5988
S'theme'
p5989
asS'http://dbpedia.org/property/users'
p5990
(lp5991
S'Users'
p5992
asS'http://dbpedia.org/property/octPrecipitationMm'
p5993
(lp5994
S'Oct precipitation mm'
p5995
asS'http://dbpedia.org/property/ancestorNames'
p5996
(lp5997
S'ancestor names'
p5998
asS'http://dbpedia.org/property/firstSeries'
p5999
(lp6000
S'first series'
p6001
asS'http://dbpedia.org/property/augRecordHighC'
p6002
(lp6003
S'Aug record high C'
p6004
asS'http://dbpedia.org/property/composer'
p6005
(lp6006
S'Composer'
p6007
asS'http://dbpedia.org/property/home'
p6008
(lp6009
S'Home'
p6010
asS'http://dbpedia.org/property/as'
p6011
(lp6012
S'as'
p6013
asVhttp://dbpedia.org/ontology/author
p6014
g4510
sVhttp://dbpedia.org/property/individualisedGnd
p6015
g4942
sS'http://dbpedia.org/property/av'
p6016
(lp6017
S'AV'
p6018
asS'http://dbpedia.org/property/length2Imperial'
p6019
(lp6020
S'length2 imperial'
p6021
asS'http://dbpedia.org/ontology/affiliation'
p6022
(lp6023
S'affiliation'
p6024
asS'http://dbpedia.org/property/numtext'
p6025
(lp6026
S'numtext'
p6027
asS'http://dbpedia.org/ontology/campus'
p6028
(lp6029
S'campus'
p6030
asS'http://dbpedia.org/property/change'
p6031
(lp6032
S'change'
p6033
asS'http://dbpedia.org/property/county'
p6034
(lp6035
S'county'
p6036
asS'http://dbpedia.org/property/olympicTeam'
p6037
(lp6038
S'olympic team'
p6039
asS'http://dbpedia.org/ontology/hubAirport'
p6040
(lp6041
S'hub airport'
p6042
asS'http://dbpedia.org/property/east'
p6043
(lp6044
S'East'
p6045
asS'http://dbpedia.org/property/southeast'
p6046
(lp6047
S'Southeast'
p6048
asS'http://dbpedia.org/property/name'
p6049
(lp6050
S'name'
p6051
asS'http://dbpedia.org/property/febPrecipitationMm'
p6052
(lp6053
S'Feb precipitation mm'
p6054
asVhttp://dbpedia.org/property/icaoAirlineCode
p6055
g5316
sS'http://dbpedia.org/property/janHighC'
p6056
(lp6057
S'Jan high C'
p6058
asS'http://dbpedia.org/property/longEw'
p6059
(lp6060
S'long EW'
p6061
asS'http://dbpedia.org/property/executiveProducer'
p6062
(lp6063
S'executive producer'
p6064
asS'http://dbpedia.org/property/heightImperial'
p6065
(lp6066
S'height imperial'
p6067
asS'http://dbpedia.org/property/poprank'
p6068
(lp6069
S'PopRank'
p6070
asS'http://dbpedia.org/property/debutleague'
p6071
(lp6072
S'debutleague'
p6073
asS'http://dbpedia.org/property/residency'
p6074
(lp6075
S'residency'
p6076
asS'http://dbpedia.org/property/blank6Info'
p6077
(lp6078
S'blank6 info'
p6079
asVhttp://dbpedia.org/property/residence
p6080
g2259
sS'http://dbpedia.org/property/cityOrRegion'
p6081
(lp6082
S'city or region'
p6083
asS'http://dbpedia.org/property/establishedDate'
p6084
(lp6085
S'established date'
p6086
asS'http://dbpedia.org/property/billed'
p6087
(lp6088
S'billed'
p6089
asS'http://dbpedia.org/property/populationBlank2Title'
p6090
(lp6091
S'population blank2 title'
p6092
asS'http://dbpedia.org/property/list'
p6093
(lp6094
S'list'
p6095
asS'http://dbpedia.org/property/majorShrine'
p6096
(lp6097
S'major shrine'
p6098
asS'http://dbpedia.org/ontology/ground'
p6099
(lp6100
S'ground'
p6101
asS'http://dbpedia.org/ontology/sourceCountry'
p6102
(lp6103
S'source country'
p6104
asVhttp://dbpedia.org/property/starring
p6105
g4380
sS'http://dbpedia.org/property/plane1Destination'
p6106
(lp6107
S'plane1 destination'
p6108
asVhttp://dbpedia.org/property/orcidId
p6109
g2963
sS'http://dbpedia.org/property/roadNote'
p6110
(lp6111
S'road note'
p6112
asS"http://dbpedia.org/property/origins'Country"
p6113
(lp6114
S"origins' country"
p6115
asS'http://dbpedia.org/property/primaryUsers'
p6116
(lp6117
S'primary users'
p6118
asS'http://dbpedia.org/property/endishmo'
p6119
(lp6120
S'endishmo'
p6121
asS'http://dbpedia.org/ontology/agency'
p6122
(lp6123
S'agency'
p6124
asS'http://dbpedia.org/property/density'
p6125
(lp6126
S'density'
p6127
asS'http://dbpedia.org/property/highestLocation'
p6128
(lp6129
S'highest location'
p6130
asS'http://dbpedia.org/property/canonizedPlace'
p6131
(lp6132
S'canonized place'
p6133
asS'http://dbpedia.org/property/decRainDays'
p6134
(lp6135
S'Dec rain days'
p6136
asS'http://dbpedia.org/property/aka'
p6137
(lp6138
S'AKA'
p6139
asS'http://dbpedia.org/property/wikt'
p6140
(lp6141
S'wikt'
p6142
asS'http://dbpedia.org/property/material'
p6143
(lp6144
S'material'
p6145
asVhttp://dbpedia.org/property/ecNumber
p6146
g576
sS'http://dbpedia.org/property/timezone'
p6147
(lp6148
S'TimeZone'
p6149
asVhttp://dbpedia.org/ontology/municipality
p6150
(lp6151
S'municipality'
p6152
asS'http://dbpedia.org/ontology/PopulatedPlace/populationDensity'
p6153
(lp6154
S'population density (/sqkm)'
p6155
asS'http://dbpedia.org/property/octRecordLowC'
p6156
(lp6157
S'Oct record low C'
p6158
asS'http://dbpedia.org/ontology/season'
p6159
(lp6160
S'season'
p6161
asS'http://dbpedia.org/property/map'
p6162
(lp6163
S'map'
p6164
asS'http://dbpedia.org/property/postalCodeType'
p6165
(lp6166
S'postal code type'
p6167
asS'http://dbpedia.org/property/locations'
p6168
(lp6169
S'locations'
p6170
asS'http://dbpedia.org/property/novRainMm'
p6171
(lp6172
S'Nov rain mm'
p6173
asS'http://dbpedia.org/property/demonym'
p6174
(lp6175
S'Demonym'
p6176
asS'http://dbpedia.org/ontology/countySeat'
p6177
(lp6178
S'county seat'
p6179
asS'http://dbpedia.org/ontology/populationUrban'
p6180
(lp6181
S'population urban'
p6182
asS'http://dbpedia.org/ontology/chancellor'
p6183
(lp6184
S'chancellor'
p6185
asS'http://dbpedia.org/ontology/secondLeader'
p6186
(lp6187
S'secondLeader'
p6188
asS'http://dbpedia.org/property/cityServed'
p6189
(lp6190
S'city-served'
p6191
asS'http://dbpedia.org/property/house'
p6192
(lp6193
S'house'
p6194
asVhttp://dbpedia.org/ontology/headquarter
p6195
g5093
sVhttp://dbpedia.org/property/istat
p6196
g5734
sVhttp://dbpedia.org/ontology/doctoralAdvisor
p6197
g854
sS'http://dbpedia.org/ontology/language'
p6198
(lp6199
S'language'
p6200
asS'http://dbpedia.org/property/locale'
p6201
(lp6202
S'locale'
p6203
asS'http://dbpedia.org/ontology/assembly'
p6204
(lp6205
S'assembly'
p6206
asS'http://dbpedia.org/property/rd2t1Loc'
p6207
(lp6208
S'RD2T1-loc'
p6209
asS'http://dbpedia.org/property/opponents'
p6210
(lp6211
S'opponents'
p6212
asS'http://dbpedia.org/property/powers'
p6213
(lp6214
S'powers'
p6215
as.