(dp0
V<http://dbpedia.org/property/teamName>
p1
V<http://dbpedia.org/ontology/teamName>
p2
sV<http://dbpedia.org/property/narrator>
p3
V<http://dbpedia.org/ontology/narrator>
p4
sV<http://dbpedia.org/property/college>
p5
V<http://dbpedia.org/ontology/college>
p6
sV<http://dbpedia.org/property/birthPlace>
p7
V<http://dbpedia.org/ontology/birthPlace>
p8
sV<http://dbpedia.org/property/garrison>
p9
V<http://dbpedia.org/ontology/garrison>
p10
sV<http://dbpedia.org/property/river>
p11
V<http://dbpedia.org/ontology/river>
p12
sV<http://dbpedia.org/property/license>
p13
V<http://dbpedia.org/ontology/license>
p14
sV<http://dbpedia.org/property/race>
p15
V<http://dbpedia.org/ontology/race>
p16
sV<http://dbpedia.org/property/office>
p17
V<http://dbpedia.org/ontology/office>
p18
sV<http://dbpedia.org/property/creator>
p19
V<http://dbpedia.org/ontology/creator>
p20
sV<http://dbpedia.org/property/locationCity>
p21
V<http://dbpedia.org/ontology/locationCity>
p22
sV<http://dbpedia.org/property/majorShrine>
p23
V<http://dbpedia.org/ontology/majorShrine>
p24
sV<http://dbpedia.org/property/architect>
p25
V<http://dbpedia.org/ontology/architect>
p26
sV<http://dbpedia.org/property/cinematography>
p27
V<http://dbpedia.org/ontology/cinematography>
p28
sV<http://dbpedia.org/property/draftTeam>
p29
V<http://dbpedia.org/ontology/draftTeam>
p30
sV<http://dbpedia.org/property/phylum>
p31
V<http://dbpedia.org/ontology/phylum>
p32
sV<http://dbpedia.org/property/founder>
p33
V<http://dbpedia.org/ontology/founder>
p34
sV<http://dbpedia.org/property/channel>
p35
V<http://dbpedia.org/ontology/channel>
p36
sV<http://dbpedia.org/property/governmentType>
p37
V<http://dbpedia.org/ontology/governmentType>
p38
sV<http://dbpedia.org/property/chairman>
p39
V<http://dbpedia.org/ontology/chairman>
p40
sV<http://dbpedia.org/property/ground>
p41
V<http://dbpedia.org/ontology/ground>
p42
sV<http://dbpedia.org/property/deathCause>
p43
V<http://dbpedia.org/ontology/deathCause>
p44
sV<http://dbpedia.org/property/affiliation>
p45
V<http://dbpedia.org/ontology/affiliation>
p46
sV<http://dbpedia.org/property/format>
p47
V<http://dbpedia.org/ontology/format>
p48
sV<http://dbpedia.org/property/discoverer>
p49
V<http://dbpedia.org/ontology/discoverer>
p50
sV<http://dbpedia.org/property/allegiance>
p51
V<http://dbpedia.org/ontology/allegiance>
p52
sV<http://dbpedia.org/property/developer>
p53
V<http://dbpedia.org/ontology/developer>
p54
sV<http://dbpedia.org/property/education>
p55
V<http://dbpedia.org/ontology/education>
p56
sV<http://dbpedia.org/property/presenter>
p57
V<http://dbpedia.org/ontology/presenter>
p58
sV<http://dbpedia.org/property/language>
p59
V<http://dbpedia.org/ontology/language>
p60
sV<http://dbpedia.org/property/result>
p61
V<http://dbpedia.org/ontology/result>
p62
sV<http://dbpedia.org/property/ethnicity>
p63
V<http://dbpedia.org/ontology/ethnicity>
p64
sV<http://dbpedia.org/property/network>
p65
V<http://dbpedia.org/ontology/network>
p66
sV<http://dbpedia.org/property/predecessor>
p67
V<http://dbpedia.org/ontology/predecessor>
p68
sV<http://dbpedia.org/property/appointer>
p69
V<http://dbpedia.org/ontology/appointer>
p70
sV<http://dbpedia.org/property/combatant>
p71
V<http://dbpedia.org/ontology/combatant>
p72
sV<http://dbpedia.org/property/editor>
p73
V<http://dbpedia.org/ontology/editor>
p74
sV<http://dbpedia.org/property/programmingLanguage>
p75
V<http://dbpedia.org/ontology/programmingLanguage>
p76
sV<http://dbpedia.org/property/class>
p77
V<http://dbpedia.org/ontology/class>
p78
sV<http://dbpedia.org/property/writer>
p79
V<http://dbpedia.org/ontology/writer>
p80
sV<http://dbpedia.org/property/deathDate>
p81
V<http://dbpedia.org/ontology/deathDate>
p82
sV<http://dbpedia.org/property/architecturalStyle>
p83
V<http://dbpedia.org/ontology/architecturalStyle>
p84
sV<http://dbpedia.org/property/currency>
p85
V<http://dbpedia.org/ontology/currency>
p86
sV<http://dbpedia.org/property/manager>
p87
V<http://dbpedia.org/ontology/manager>
p88
sV<http://dbpedia.org/property/designer>
p89
V<http://dbpedia.org/ontology/designer>
p90
sV<http://dbpedia.org/property/licensee>
p91
V<http://dbpedia.org/ontology/licensee>
p92
sV<http://dbpedia.org/property/placeOfBurial>
p93
V<http://dbpedia.org/ontology/placeOfBurial>
p94
sV<http://dbpedia.org/property/league>
p95
V<http://dbpedia.org/ontology/league>
p96
sV<http://dbpedia.org/property/publisher>
p97
V<http://dbpedia.org/ontology/publisher>
p98
sV<http://dbpedia.org/property/genre>
p99
V<http://dbpedia.org/ontology/genre>
p100
sV<http://dbpedia.org/property/company>
p101
V<http://dbpedia.org/ontology/company>
p102
sV<http://dbpedia.org/property/engine>
p103
V<http://dbpedia.org/ontology/engine>
p104
sV<http://dbpedia.org/property/capital>
p105
V<http://dbpedia.org/ontology/capital>
p106
sV<http://dbpedia.org/property/leaderName>
p107
V<http://dbpedia.org/ontology/leaderName>
p108
sV<http://dbpedia.org/property/veneratedIn>
p109
V<http://dbpedia.org/ontology/veneratedIn>
p110
sV<http://dbpedia.org/property/series>
p111
V<http://dbpedia.org/ontology/series>
p112
sV<http://dbpedia.org/property/origin>
p113
V<http://dbpedia.org/ontology/origin>
p114
sV<http://dbpedia.org/property/executiveProducer>
p115
V<http://dbpedia.org/ontology/executiveProducer>
p116
sV<http://dbpedia.org/property/director>
p117
V<http://dbpedia.org/ontology/director>
p118
sV<http://dbpedia.org/property/position>
p119
V<http://dbpedia.org/ontology/position>
p120
sV<http://dbpedia.org/property/owner>
p121
V<http://dbpedia.org/ontology/owner>
p122
sV<http://dbpedia.org/property/training>
p123
V<http://dbpedia.org/ontology/training>
p124
sV<http://dbpedia.org/property/outflow>
p125
V<http://dbpedia.org/ontology/outflow>
p126
sV<http://dbpedia.org/property/residence>
p127
V<http://dbpedia.org/ontology/residence>
p128
sV<http://dbpedia.org/property/commander>
p129
V<http://dbpedia.org/ontology/commander>
p130
sV<http://dbpedia.org/property/place>
p131
V<http://dbpedia.org/ontology/place>
p132
sV<http://dbpedia.org/property/editing>
p133
V<http://dbpedia.org/ontology/editing>
p134
sV<http://dbpedia.org/property/province>
p135
V<http://dbpedia.org/ontology/province>
p136
sV<http://dbpedia.org/property/jurisdiction>
p137
V<http://dbpedia.org/ontology/jurisdiction>
p138
sV<http://dbpedia.org/property/firstDriver>
p139
V<http://dbpedia.org/ontology/firstDriver>
p140
sV<http://dbpedia.org/property/birthDate>
p141
V<http://dbpedia.org/ontology/birthDate>
p142
sV<http://dbpedia.org/property/spouse>
p143
V<http://dbpedia.org/ontology/spouse>
p144
sV<http://dbpedia.org/property/chancellor>
p145
V<http://dbpedia.org/ontology/chancellor>
p146
sV<http://dbpedia.org/property/location>
p147
V<http://dbpedia.org/ontology/location>
p148
sV<http://dbpedia.org/property/type>
p149
V<http://dbpedia.org/ontology/type>
p150
sV<http://dbpedia.org/property/club>
p151
V<http://dbpedia.org/ontology/club>
p152
sV<http://dbpedia.org/property/billed>
p153
V<http://dbpedia.org/ontology/billed>
p154
sV<http://dbpedia.org/property/region>
p155
V<http://dbpedia.org/ontology/region>
p156
sV<http://dbpedia.org/property/crosses>
p157
V<http://dbpedia.org/ontology/crosses>
p158
sV<http://dbpedia.org/property/author>
p159
V<http://dbpedia.org/ontology/author>
p160
sV<http://dbpedia.org/property/governor>
p161
V<http://dbpedia.org/ontology/governor>
p162
sV<http://dbpedia.org/property/president>
p163
V<http://dbpedia.org/ontology/president>
p164
sV<http://dbpedia.org/property/athletics>
p165
V<http://dbpedia.org/ontology/athletics>
p166
sV<http://dbpedia.org/property/locationCountry>
p167
V<http://dbpedia.org/ontology/locationCountry>
p168
sV<http://dbpedia.org/property/producer>
p169
V<http://dbpedia.org/ontology/producer>
p170
sV<http://dbpedia.org/property/canonizedBy>
p171
V<http://dbpedia.org/ontology/canonizedBy>
p172
sV<http://dbpedia.org/property/state>
p173
V<http://dbpedia.org/ontology/state>
p174
sV<http://dbpedia.org/property/doctoralAdvisor>
p175
V<http://dbpedia.org/ontology/doctoralAdvisor>
p176
sV<http://dbpedia.org/property/hometown>
p177
V<http://dbpedia.org/ontology/hometown>
p178
sV<http://dbpedia.org/property/builder>
p179
V<http://dbpedia.org/ontology/builder>
p180
sV<http://dbpedia.org/property/purpose>
p181
V<http://dbpedia.org/ontology/purpose>
p182
sV<http://dbpedia.org/property/honours>
p183
V<http://dbpedia.org/ontology/honours>
p184
sV<http://dbpedia.org/property/species>
p185
V<http://dbpedia.org/ontology/species>
p186
sV<http://dbpedia.org/property/school>
p187
V<http://dbpedia.org/ontology/school>
p188
sV<http://dbpedia.org/property/coach>
p189
V<http://dbpedia.org/ontology/coach>
p190
sV<http://dbpedia.org/property/border>
p191
V<http://dbpedia.org/ontology/border>
p192
sV<http://dbpedia.org/property/prospectTeam>
p193
V<http://dbpedia.org/ontology/prospectTeam>
p194
sV<http://dbpedia.org/property/beatifiedBy>
p195
V<http://dbpedia.org/ontology/beatifiedBy>
p196
sV<http://dbpedia.org/property/country>
p197
V<http://dbpedia.org/ontology/country>
p198
sV<http://dbpedia.org/property/team>
p199
V<http://dbpedia.org/ontology/team>
p200
sV<http://dbpedia.org/property/magazine>
p201
V<http://dbpedia.org/ontology/magazine>
p202
sV<http://dbpedia.org/property/knownFor>
p203
V<http://dbpedia.org/ontology/knownFor>
p204
sV<http://dbpedia.org/property/leader>
p205
V<http://dbpedia.org/ontology/leader>
p206
sV<http://dbpedia.org/property/animator>
p207
V<http://dbpedia.org/ontology/animator>
p208
sV<http://dbpedia.org/property/nearestCity>
p209
V<http://dbpedia.org/ontology/nearestCity>
p210
sV<http://dbpedia.org/property/broadcastArea>
p211
V<http://dbpedia.org/ontology/broadcastArea>
p212
sV<http://dbpedia.org/property/sourceCountry>
p213
V<http://dbpedia.org/ontology/sourceCountry>
p214
sV<http://dbpedia.org/property/mission>
p215
V<http://dbpedia.org/ontology/mission>
p216
sV<http://dbpedia.org/property/almaMater>
p217
V<http://dbpedia.org/ontology/almaMater>
p218
sV<http://dbpedia.org/property/inflow>
p219
V<http://dbpedia.org/ontology/inflow>
p220
sV<http://dbpedia.org/property/composer>
p221
V<http://dbpedia.org/ontology/composer>
p222
sV<http://dbpedia.org/property/movement>
p223
V<http://dbpedia.org/ontology/movement>
p224
sV<http://dbpedia.org/property/occupation>
p225
V<http://dbpedia.org/ontology/occupation>
p226
sV<http://dbpedia.org/property/deathPlace>
p227
V<http://dbpedia.org/ontology/deathPlace>
p228
sV<http://dbpedia.org/property/trainer>
p229
V<http://dbpedia.org/ontology/trainer>
p230
sV<http://dbpedia.org/property/lyrics>
p231
V<http://dbpedia.org/ontology/lyrics>
p232
sV<http://dbpedia.org/property/university>
p233
V<http://dbpedia.org/ontology/university>
p234
sV<http://dbpedia.org/property/district>
p235
V<http://dbpedia.org/ontology/district>
p236
sV<http://dbpedia.org/property/domain>
p237
V<http://dbpedia.org/ontology/domain>
p238
sV<http://dbpedia.org/property/sire>
p239
V<http://dbpedia.org/ontology/sire>
p240
sV<http://dbpedia.org/property/archipelago>
p241
V<http://dbpedia.org/ontology/archipelago>
p242
sV<http://dbpedia.org/property/party>
p243
V<http://dbpedia.org/ontology/party>
p244
sV<http://dbpedia.org/property/poleDriver>
p245
V<http://dbpedia.org/ontology/poleDriver>
p246
sV<http://dbpedia.org/property/assembly>
p247
V<http://dbpedia.org/ontology/assembly>
p248
sV<http://dbpedia.org/property/membership>
p249
V<http://dbpedia.org/ontology/membership>
p250
sV<http://dbpedia.org/property/incumbent>
p251
V<http://dbpedia.org/ontology/incumbent>
p252
sV<http://dbpedia.org/property/bodyDiscovered>
p253
V<http://dbpedia.org/ontology/bodyDiscovered>
p254
sV<http://dbpedia.org/property/successor>
p255
V<http://dbpedia.org/ontology/successor>
p256
sV<http://dbpedia.org/property/opponent>
p257
V<http://dbpedia.org/ontology/opponent>
p258
sV<http://dbpedia.org/property/distributor>
p259
V<http://dbpedia.org/ontology/distributor>
p260
sV<http://dbpedia.org/property/meaning>
p261
V<http://dbpedia.org/ontology/meaning>
p262
sV<http://dbpedia.org/property/religion>
p263
V<http://dbpedia.org/ontology/religion>
p264
sV<http://dbpedia.org/property/artist>
p265
V<http://dbpedia.org/ontology/artist>
p266
sV<http://dbpedia.org/property/employer>
p267
V<http://dbpedia.org/ontology/employer>
p268
sV<http://dbpedia.org/property/coverArtist>
p269
V<http://dbpedia.org/ontology/coverArtist>
p270
sV<http://dbpedia.org/property/starring>
p271
V<http://dbpedia.org/ontology/starring>
p272
sV<http://dbpedia.org/property/birthName>
p273
V<http://dbpedia.org/ontology/birthName>
p274
sV<http://dbpedia.org/property/manufacturer>
p275
V<http://dbpedia.org/ontology/manufacturer>
p276
sV<http://dbpedia.org/property/deputy>
p277
V<http://dbpedia.org/ontology/deputy>
p278
sV<http://dbpedia.org/property/address>
p279
V<http://dbpedia.org/ontology/address>
p280
sV<http://dbpedia.org/property/mascot>
p281
V<http://dbpedia.org/ontology/mascot>
p282
sV<http://dbpedia.org/property/city>
p283
V<http://dbpedia.org/ontology/city>
p284
sV<http://dbpedia.org/property/citizenship>
p285
V<http://dbpedia.org/ontology/citizenship>
p286
sV<http://dbpedia.org/property/museum>
p287
V<http://dbpedia.org/ontology/museum>
p288
sV<http://dbpedia.org/property/related>
p289
V<http://dbpedia.org/ontology/related>
p290
sV<http://dbpedia.org/property/partner>
p291
V<http://dbpedia.org/ontology/partner>
p292
sV<http://dbpedia.org/property/album>
p293
V<http://dbpedia.org/ontology/album>
p294
sV<http://dbpedia.org/property/operator>
p295
V<http://dbpedia.org/ontology/operator>
p296
sV<http://dbpedia.org/property/restingPlace>
p297
V<http://dbpedia.org/ontology/restingPlace>
p298
sV<http://dbpedia.org/property/grandsire>
p299
V<http://dbpedia.org/ontology/grandsire>
p300
sV<http://dbpedia.org/property/governingBody>
p301
V<http://dbpedia.org/ontology/governingBody>
p302
sV<http://dbpedia.org/property/nationality>
p303
V<http://dbpedia.org/ontology/nationality>
p304
sV<http://dbpedia.org/property/mayor>
p305
V<http://dbpedia.org/ontology/mayor>
p306
sV<http://dbpedia.org/property/lieutenant>
p307
V<http://dbpedia.org/ontology/lieutenant>
p308
s.