(lp0
(dp1
Vdistinct
p2
I01
sVwhere
p3
(lp4
(dp5
Vtriples
p6
(lp7
(dp8
Vpredicate
p9
Vhttp://dbpedia.org/ontology/date
p10
sVobject
p11
V?date
p12
sVsubject
p13
Vhttp://dbpedia.org/resource/Battle_of_Gettysburg
p14
sasVtype
p15
Vbgp
p16
sasVvariables
p17
(lp18
V?date
p19
asVprefixes
p20
(dp21
Vres
p22
Vhttp://dbpedia.org/resource/
p23
sVdbo
p24
Vhttp://dbpedia.org/ontology/
p25
ssVtype
p26
Vquery
p27
sVqueryType
p28
VSELECT
p29
sa(dp30
Vdistinct
p31
I01
sVwhere
p32
(lp33
(dp34
Vtriples
p35
(lp36
(dp37
Vpredicate
p38
Vhttp://www.w3.org/1999/02/22-rdf-syntax-ns#type
p39
sVobject
p40
Vhttp://dbpedia.org/ontology/Musical
p41
sVsubject
p42
V?uri
p43
sa(dp44
Vpredicate
p45
Vhttp://dbpedia.org/ontology/musicBy
p46
sVobject
p47
Vhttp://dbpedia.org/resource/Elton_John
p48
sVsubject
p49
V?uri
p50
sasVtype
p51
Vbgp
p52
sasVvariables
p53
(lp54
V?uri
p55
asVprefixes
p56
(dp57
Vres
p58
Vhttp://dbpedia.org/resource/
p59
sVrdf
p60
Vhttp://www.w3.org/1999/02/22-rdf-syntax-ns#
p61
sVdbo
p62
Vhttp://dbpedia.org/ontology/
p63
ssVtype
p64
Vquery
p65
sVqueryType
p66
VSELECT
p67
sa(dp68
Vdistinct
p69
I01
sVwhere
p70
(lp71
(dp72
Vtriples
p73
(lp74
(dp75
Vpredicate
p76
Vhttp://dbpedia.org/ontology/height
p77
sVobject
p78
V?num
p79
sVsubject
p80
Vhttp://dbpedia.org/resource/Colombo_Lighthouse
p81
sasVtype
p82
Vbgp
p83
sasVvariables
p84
(lp85
V?num
p86
asVprefixes
p87
(dp88
sVtype
p89
Vquery
p90
sVqueryType
p91
VSELECT
p92
sa(dp93
Vdistinct
p94
I01
sVwhere
p95
(lp96
(dp97
Vtriples
p98
(lp99
(dp100
Vpredicate
p101
Vhttp://dbpedia.org/ontology/spouse
p102
sVobject
p103
V?uri
p104
sVsubject
p105
Vhttp://dbpedia.org/resource/Abraham_Lincoln
p106
sasVtype
p107
Vbgp
p108
sasVvariables
p109
(lp110
V?uri
p111
asVprefixes
p112
(dp113
Vres
p114
Vhttp://dbpedia.org/resource/
p115
sVdbo
p116
Vhttp://dbpedia.org/ontology/
p117
ssVtype
p118
Vquery
p119
sVqueryType
p120
VSELECT
p121
sa(dp122
Vdistinct
p123
I01
sVwhere
p124
(lp125
(dp126
Vtriples
p127
(lp128
(dp129
Vpredicate
p130
Vhttp://dbpedia.org/ontology/presenter
p131
sVobject
p132
V?uri
p133
sVsubject
p134
Vhttp://dbpedia.org/resource/BBC_Wildlife_Specials
p135
sasVtype
p136
Vbgp
p137
sasVvariables
p138
(lp139
V?uri
p140
asVprefixes
p141
(dp142
sVtype
p143
Vquery
p144
sVqueryType
p145
VSELECT
p146
sa(dp147
Vdistinct
p148
I01
sVwhere
p149
(lp150
(dp151
Vtriples
p152
(lp153
(dp154
Vpredicate
p155
Vhttp://dbpedia.org/ontology/budget
p156
sVobject
p157
V?n
p158
sVsubject
p159
Vhttp://dbpedia.org/resource/Pulp_Fiction
p160
sasVtype
p161
Vbgp
p162
sasVvariables
p163
(lp164
V?n
p165
asVprefixes
p166
(dp167
sVtype
p168
Vquery
p169
sVqueryType
p170
VSELECT
p171
sa(dp172
Vdistinct
p173
I01
sVwhere
p174
(lp175
(dp176
Vtriples
p177
(lp178
(dp179
Vpredicate
p180
Vhttp://dbpedia.org/ontology/manufacturer
p181
sVobject
p182
V?x
p183
sVsubject
p184
Vhttp://dbpedia.org/resource/Heineken
p185
sa(dp186
Vpredicate
p187
Vhttp://dbpedia.org/ontology/locationCity
p188
sVobject
p189
V?uri
p190
sVsubject
p191
V?x
p192
sasVtype
p193
Vbgp
p194
sasVvariables
p195
(lp196
V?uri
p197
asVprefixes
p198
(dp199
sVtype
p200
Vquery
p201
sVqueryType
p202
VSELECT
p203
sa(dp204
Vdistinct
p205
I01
sVwhere
p206
(lp207
(dp208
Vtriples
p209
(lp210
(dp211
Vpredicate
p212
Vhttp://dbpedia.org/ontology/date
p213
sVobject
p214
V?d
p215
sVsubject
p216
Vhttp://dbpedia.org/resource/Operation_Overlord
p217
sasVtype
p218
Vbgp
p219
sasVvariables
p220
(lp221
V?d
p222
asVprefixes
p223
(dp224
sVtype
p225
Vquery
p226
sVqueryType
p227
VSELECT
p228
sa(dp229
Vdistinct
p230
I01
sVwhere
p231
(lp232
(dp233
Vtriples
p234
(lp235
(dp236
Vpredicate
p237
Vhttp://dbpedia.org/ontology/routeEnd
p238
sVobject
p239
V?uri
p240
sVsubject
p241
Vhttp://dbpedia.org/resource/Chile_Route_68
p242
sasVtype
p243
Vbgp
p244
sasVvariables
p245
(lp246
V?uri
p247
asVprefixes
p248
(dp249
sVtype
p250
Vquery
p251
sVqueryType
p252
VSELECT
p253
sa(dp254
Vdistinct
p255
I01
sVwhere
p256
(lp257
(dp258
Vtriples
p259
(lp260
(dp261
Vpredicate
p262
Vhttp://dbpedia.org/ontology/product
p263
sVobject
p264
Vhttp://dbpedia.org/resource/Slack_(software)
p265
sVsubject
p266
V?uri
p267
sasVtype
p268
Vbgp
p269
sasVvariables
p270
(lp271
V?uri
p272
asVprefixes
p273
(dp274
sVtype
p275
Vquery
p276
sVqueryType
p277
VSELECT
p278
sa(dp279
Vdistinct
p280
I01
sVwhere
p281
(lp282
(dp283
Vtriples
p284
(lp285
(dp286
Vpredicate
p287
Vhttp://dbpedia.org/ontology/spouse
p288
sVobject
p289
V?uri
p290
sVsubject
p291
Vhttp://dbpedia.org/resource/Jacques_Chirac
p292
sasVtype
p293
Vbgp
p294
sasVvariables
p295
(lp296
V?uri
p297
asVprefixes
p298
(dp299
Vres
p300
Vhttp://dbpedia.org/resource/
p301
sVdbo
p302
Vhttp://dbpedia.org/ontology/
p303
ssVtype
p304
Vquery
p305
sVqueryType
p306
VSELECT
p307
sa(dp308
Vdistinct
p309
I01
sVwhere
p310
(lp311
(dp312
Vtriples
p313
(lp314
(dp315
Vpredicate
p316
Vhttp://dbpedia.org/ontology/deathCause
p317
sVobject
p318
V?uri
p319
sVsubject
p320
Vhttp://dbpedia.org/resource/Bruce_Carver
p321
sasVtype
p322
Vbgp
p323
sasVvariables
p324
(lp325
V?uri
p326
asVprefixes
p327
(dp328
Vres
p329
Vhttp://dbpedia.org/resource/
p330
sVdbo
p331
Vhttp://dbpedia.org/ontology/
p332
ssVtype
p333
Vquery
p334
sVqueryType
p335
VSELECT
p336
sa(dp337
Vdistinct
p338
I01
sVwhere
p339
(lp340
(dp341
Vtriples
p342
(lp343
(dp344
Vpredicate
p345
Vhttp://dbpedia.org/property/artist
p346
sVobject
p347
V?uri
p348
sVsubject
p349
Vhttp://dbpedia.org/resource/The_Storm_on_the_Sea_of_Galilee
p350
sasVtype
p351
Vbgp
p352
sasVvariables
p353
(lp354
V?uri
p355
asVprefixes
p356
(dp357
Vdbp
p358
Vhttp://dbpedia.org/property/
p359
sVres
p360
Vhttp://dbpedia.org/resource/
p361
ssVtype
p362
Vquery
p363
sVqueryType
p364
VSELECT
p365
sa(dp366
Vdistinct
p367
I01
sVwhere
p368
(lp369
(dp370
Vtriples
p371
(lp372
(dp373
Vpredicate
p374
Vhttp://dbpedia.org/ontology/city
p375
sVobject
p376
V?uri
p377
sVsubject
p378
Vhttp://dbpedia.org/resource/Weser
p379
sasVtype
p380
Vbgp
p381
sasVvariables
p382
(lp383
V?uri
p384
asVprefixes
p385
(dp386
sVtype
p387
Vquery
p388
sVqueryType
p389
VSELECT
p390
sa(dp391
Vdistinct
p392
I01
sVwhere
p393
(lp394
(dp395
Vtriples
p396
(lp397
(dp398
Vpredicate
p399
Vhttp://dbpedia.org/ontology/ground
p400
sVobject
p401
V?x
p402
sVsubject
p403
Vhttp://dbpedia.org/resource/FC_Porto
p404
sa(dp405
Vpredicate
p406
Vhttp://dbpedia.org/ontology/seatingCapacity
p407
sVobject
p408
V?n
p409
sVsubject
p410
V?x
p411
sasVtype
p412
Vbgp
p413
sasVvariables
p414
(lp415
V?n
p416
asVprefixes
p417
(dp418
sVtype
p419
Vquery
p420
sVqueryType
p421
VSELECT
p422
sa(dp423
Vdistinct
p424
I01
sVwhere
p425
(lp426
(dp427
Vtriples
p428
(lp429
(dp430
Vpredicate
p431
Vhttp://dbpedia.org/ontology/child
p432
sVobject
p433
V?child
p434
sVsubject
p435
Vhttp://dbpedia.org/resource/Robert_F._Kennedy
p436
sa(dp437
Vpredicate
p438
Vhttp://dbpedia.org/ontology/spouse
p439
sVobject
p440
V?uri
p441
sVsubject
p442
V?child
p443
sasVtype
p444
Vbgp
p445
sasVvariables
p446
(lp447
V?uri
p448
asVprefixes
p449
(dp450
sVtype
p451
Vquery
p452
sVqueryType
p453
VSELECT
p454
sa(dp455
Vdistinct
p456
I01
sVwhere
p457
(lp458
(dp459
Vtriples
p460
(lp461
(dp462
Vpredicate
p463
Vhttp://www.w3.org/1999/02/22-rdf-syntax-ns#type
p464
sVobject
p465
Vhttp://dbpedia.org/ontology/Book
p466
sVsubject
p467
V?uri
p468
sa(dp469
Vpredicate
p470
Vhttp://dbpedia.org/ontology/publisher
p471
sVobject
p472
Vhttp://dbpedia.org/resource/Viking_Press
p473
sVsubject
p474
V?uri
p475
sa(dp476
Vpredicate
p477
Vhttp://dbpedia.org/ontology/author
p478
sVobject
p479
Vhttp://dbpedia.org/resource/Jack_Kerouac
p480
sVsubject
p481
V?uri
p482
sasVtype
p483
Vbgp
p484
sasVvariables
p485
(lp486
V?uri
p487
asVprefixes
p488
(dp489
sVtype
p490
Vquery
p491
sVqueryType
p492
VSELECT
p493
sa(dp494
Vdistinct
p495
I01
sVwhere
p496
(lp497
(dp498
Vtriples
p499
(lp500
(dp501
Vpredicate
p502
Vhttp://dbpedia.org/ontology/height
p503
sVobject
p504
V?height
p505
sVsubject
p506
Vhttp://dbpedia.org/resource/Amazon_Eve
p507
sasVtype
p508
Vbgp
p509
sasVvariables
p510
(lp511
V?height
p512
asVprefixes
p513
(dp514
sVtype
p515
Vquery
p516
sVqueryType
p517
VSELECT
p518
sa(dp519
Vdistinct
p520
I01
sVwhere
p521
(lp522
(dp523
Vtriples
p524
(lp525
(dp526
Vpredicate
p527
Vhttp://dbpedia.org/ontology/museum
p528
sVobject
p529
V?uri
p530
sVsubject
p531
Vhttp://dbpedia.org/resource/The_Scream
p532
sasVtype
p533
Vbgp
p534
sasVvariables
p535
(lp536
V?uri
p537
asVprefixes
p538
(dp539
Vres
p540
Vhttp://dbpedia.org/resource/
p541
sVdbo
p542
Vhttp://dbpedia.org/ontology/
p543
ssVtype
p544
Vquery
p545
sVqueryType
p546
VSELECT
p547
sa(dp548
Vdistinct
p549
I01
sVwhere
p550
(lp551
(dp552
Vtriples
p553
(lp554
(dp555
Vpredicate
p556
Vhttp://dbpedia.org/ontology/author
p557
sVobject
p558
V?uri
p559
sVsubject
p560
Vhttp://dbpedia.org/resource/The_Pillars_of_the_Earth
p561
sasVtype
p562
Vbgp
p563
sasVvariables
p564
(lp565
V?uri
p566
asVprefixes
p567
(dp568
Vres
p569
Vhttp://dbpedia.org/resource/
p570
sVdbo
p571
Vhttp://dbpedia.org/ontology/
p572
ssVtype
p573
Vquery
p574
sVqueryType
p575
VSELECT
p576
sa(dp577
Vprefixes
p578
(dp579
Vres
p580
Vhttp://dbpedia.org/resource/
p581
sVdbo
p582
Vhttp://dbpedia.org/ontology/
p583
ssVtype
p584
Vquery
p585
sVwhere
p586
(lp587
(dp588
Vtriples
p589
(lp590
(dp591
Vpredicate
p592
Vhttp://dbpedia.org/ontology/spouse
p593
sVobject
p594
V?uri
p595
sVsubject
p596
Vhttp://dbpedia.org/resource/James_Bond
p597
sasVtype
p598
Vbgp
p599
sasVqueryType
p600
VASK
p601
sa(dp602
Vdistinct
p603
I01
sVwhere
p604
(lp605
(dp606
Vtriples
p607
(lp608
(dp609
Vpredicate
p610
Vhttp://dbpedia.org/ontology/discoverer
p611
sVobject
p612
V?uri
p613
sVsubject
p614
Vhttp://dbpedia.org/resource/Ceres_(dwarf_planet)
p615
sasVtype
p616
Vbgp
p617
sasVvariables
p618
(lp619
V?uri
p620
asVprefixes
p621
(dp622
sVtype
p623
Vquery
p624
sVqueryType
p625
VSELECT
p626
sa(dp627
Vdistinct
p628
I01
sVwhere
p629
(lp630
(dp631
Vtriples
p632
(lp633
(dp634
Vpredicate
p635
Vhttp://dbpedia.org/ontology/crosses
p636
sVobject
p637
V?uri
p638
sVsubject
p639
Vhttp://dbpedia.org/resource/Brooklyn_Bridge
p640
sasVtype
p641
Vbgp
p642
sasVvariables
p643
(lp644
V?uri
p645
asVprefixes
p646
(dp647
Vres
p648
Vhttp://dbpedia.org/resource/
p649
sVdbo
p650
Vhttp://dbpedia.org/ontology/
p651
ssVtype
p652
Vquery
p653
sVqueryType
p654
VSELECT
p655
sa(dp656
Vdistinct
p657
I01
sVwhere
p658
(lp659
(dp660
Vtriples
p661
(lp662
(dp663
Vpredicate
p664
Vhttp://dbpedia.org/property/nickname
p665
sVobject
p666
V"Frank The Tank"@en
p667
sVsubject
p668
V?uri
p669
sasVtype
p670
Vbgp
p671
sasVvariables
p672
(lp673
V?uri
p674
asVprefixes
p675
(dp676
Vdbp
p677
Vhttp://dbpedia.org/property/
p678
ssVtype
p679
Vquery
p680
sVqueryType
p681
VSELECT
p682
sa(dp683
Vdistinct
p684
I01
sVtype
p685
Vquery
p686
sVvariables
p687
(lp688
V?uri
p689
asVorder
p690
(lp691
(dp692
Vdescending
p693
I01
sVexpression
p694
V?n
p695
sasVprefixes
p696
(dp697
sVlimit
p698
I1
sVoffset
p699
I0
sVwhere
p700
(lp701
(dp702
Vtriples
p703
(lp704
(dp705
Vpredicate
p706
Vhttp://www.w3.org/1999/02/22-rdf-syntax-ns#type
p707
sVobject
p708
Vhttp://dbpedia.org/ontology/Country
p709
sVsubject
p710
V?uri
p711
sa(dp712
Vpredicate
p713
Vhttp://dbpedia.org/ontology/areaTotal
p714
sVobject
p715
V?n
p716
sVsubject
p717
V?uri
p718
sasVtype
p719
Vbgp
p720
sasVqueryType
p721
VSELECT
p722
sa(dp723
Vdistinct
p724
I01
sVwhere
p725
(lp726
(dp727
Vtriples
p728
(lp729
(dp730
Vpredicate
p731
Vhttp://dbpedia.org/ontology/mayor
p732
sVobject
p733
V?uri
p734
sVsubject
p735
Vhttp://dbpedia.org/resource/Paris
p736
sasVtype
p737
Vbgp
p738
sasVvariables
p739
(lp740
V?uri
p741
asVprefixes
p742
(dp743
sVtype
p744
Vquery
p745
sVqueryType
p746
VSELECT
p747
sa(dp748
Vdistinct
p749
I01
sVwhere
p750
(lp751
(dp752
Vtriples
p753
(lp754
(dp755
Vpredicate
p756
Vhttp://dbpedia.org/ontology/city
p757
sVobject
p758
Vhttp://dbpedia.org/resource/Ankara
p759
sVsubject
p760
V?x
p761
sa(dp762
Vpredicate
p763
Vhttp://dbpedia.org/ontology/league
p764
sVobject
p765
Vhttp://dbpedia.org/resource/Turkish_Ice_Hockey_First_League
p766
sVsubject
p767
V?x
p768
sa(dp769
Vpredicate
p770
Vhttp://dbpedia.org/ontology/coach
p771
sVobject
p772
V?uri
p773
sVsubject
p774
V?x
p775
sasVtype
p776
Vbgp
p777
sasVvariables
p778
(lp779
V?uri
p780
asVprefixes
p781
(dp782
sVtype
p783
Vquery
p784
sVqueryType
p785
VSELECT
p786
sa(dp787
Vdistinct
p788
I01
sVwhere
p789
(lp790
(dp791
Vtriples
p792
(lp793
(dp794
Vpredicate
p795
Vhttp://dbpedia.org/ontology/capital
p796
sVobject
p797
V?x
p798
sVsubject
p799
Vhttp://dbpedia.org/resource/French_Polynesia
p800
sa(dp801
Vpredicate
p802
Vhttp://dbpedia.org/ontology/mayor
p803
sVobject
p804
V?uri
p805
sVsubject
p806
V?x
p807
sasVtype
p808
Vbgp
p809
sasVvariables
p810
(lp811
V?uri
p812
asVprefixes
p813
(dp814
Vres
p815
Vhttp://dbpedia.org/resource/
p816
sVdbo
p817
Vhttp://dbpedia.org/ontology/
p818
ssVtype
p819
Vquery
p820
sVqueryType
p821
VSELECT
p822
sa(dp823
Vdistinct
p824
I01
sVwhere
p825
(lp826
(dp827
Vtriples
p828
(lp829
(dp830
Vpredicate
p831
Vhttp://dbpedia.org/ontology/award
p832
sVobject
p833
V?uri
p834
sVsubject
p835
Vhttp://dbpedia.org/resource/Douglas_Hofstadter
p836
sasVtype
p837
Vbgp
p838
sasVvariables
p839
(lp840
V?uri
p841
asVprefixes
p842
(dp843
Vres
p844
Vhttp://dbpedia.org/resource/
p845
sVdbo
p846
Vhttp://dbpedia.org/ontology/
p847
ssVtype
p848
Vquery
p849
sVqueryType
p850
VSELECT
p851
sa(dp852
Vdistinct
p853
I01
sVwhere
p854
(lp855
(dp856
Vtriples
p857
(lp858
(dp859
Vpredicate
p860
Vhttp://dbpedia.org/ontology/budget
p861
sVobject
p862
V?n
p863
sVsubject
p864
Vhttp://dbpedia.org/resource/The_Lego_Movie
p865
sasVtype
p866
Vbgp
p867
sasVvariables
p868
(lp869
V?n
p870
asVprefixes
p871
(dp872
sVtype
p873
Vquery
p874
sVqueryType
p875
VSELECT
p876
sa(dp877
Vdistinct
p878
I01
sVwhere
p879
(lp880
(dp881
Vtriples
p882
(lp883
(dp884
Vpredicate
p885
Vhttp://dbpedia.org/ontology/routeStart
p886
sVobject
p887
Vhttp://dbpedia.org/resource/Piccadilly
p888
sVsubject
p889
V?uri
p890
sasVtype
p891
Vbgp
p892
sasVvariables
p893
(lp894
V?uri
p895
asVprefixes
p896
(dp897
sVtype
p898
Vquery
p899
sVqueryType
p900
VSELECT
p901
sa(dp902
Vprefixes
p903
(dp904
Vdbo
p905
Vhttp://dbpedia.org/ontology/
p906
ssVtype
p907
Vquery
p908
sVwhere
p909
(lp910
(dp911
Vtriples
p912
(lp913
(dp914
Vpredicate
p915
Vhttp://dbpedia.org/ontology/parent
p916
sVobject
p917
V?x
p918
sVsubject
p919
Vhttp://dbpedia.org/resource/Prince_William,_Duke_of_Cambridge
p920
sa(dp921
Vpredicate
p922
Vhttp://dbpedia.org/ontology/parent
p923
sVobject
p924
V?x
p925
sVsubject
p926
Vhttp://dbpedia.org/resource/Prince_Harry
p927
sasVtype
p928
Vbgp
p929
sasVqueryType
p930
VASK
p931
sa(dp932
Vdistinct
p933
I01
sVwhere
p934
(lp935
(dp936
Vtriples
p937
(lp938
(dp939
Vpredicate
p940
Vhttp://dbpedia.org/property/portrayer
p941
sVobject
p942
V?uri
p943
sVsubject
p944
Vhttp://dbpedia.org/resource/Agent_Smith
p945
sasVtype
p946
Vbgp
p947
sasVvariables
p948
(lp949
V?uri
p950
asVprefixes
p951
(dp952
Vdbp
p953
Vhttp://dbpedia.org/property/
p954
sVres
p955
Vhttp://dbpedia.org/resource/
p956
ssVtype
p957
Vquery
p958
sVqueryType
p959
VSELECT
p960
sa(dp961
Vprefixes
p962
(dp963
sVtype
p964
Vquery
p965
sVvariables
p966
(lp967
(dp968
Vvariable
p969
V?c
p970
sVexpression
p971
(dp972
Vdistinct
p973
I01
sVtype
p974
Vaggregate
p975
sVexpression
p976
V?x
p977
sVaggregation
p978
Vcount
p979
ssasVwhere
p980
(lp981
(dp982
Vtriples
p983
(lp984
(dp985
Vpredicate
p986
Vhttp://dbpedia.org/ontology/language
p987
sVobject
p988
V?x
p989
sVsubject
p990
Vhttp://dbpedia.org/resource/Turkmenistan
p991
sasVtype
p992
Vbgp
p993
sasVqueryType
p994
VSELECT
p995
sa(dp996
Vdistinct
p997
I01
sVwhere
p998
(lp999
(dp1000
Vtriples
p1001
(lp1002
(dp1003
Vpredicate
p1004
Vhttp://www.w3.org/1999/02/22-rdf-syntax-ns#type
p1005
sVobject
p1006
Vhttp://dbpedia.org/ontology/Film
p1007
sVsubject
p1008
V?uri
p1009
sa(dp1010
Vpredicate
p1011
Vhttp://dbpedia.org/ontology/starring
p1012
sVobject
p1013
Vhttp://dbpedia.org/resource/Julia_Roberts
p1014
sVsubject
p1015
V?uri
p1016
sa(dp1017
Vpredicate
p1018
Vhttp://dbpedia.org/ontology/starring
p1019
sVobject
p1020
Vhttp://dbpedia.org/resource/Richard_Gere
p1021
sVsubject
p1022
V?uri
p1023
sasVtype
p1024
Vbgp
p1025
sasVvariables
p1026
(lp1027
V?uri
p1028
asVprefixes
p1029
(dp1030
sVtype
p1031
Vquery
p1032
sVqueryType
p1033
VSELECT
p1034
sa(dp1035
Vdistinct
p1036
I01
sVwhere
p1037
(lp1038
(dp1039
Vtriples
p1040
(lp1041
(dp1042
Vpredicate
p1043
Vhttp://dbpedia.org/ontology/sourceCountry
p1044
sVobject
p1045
V?uri
p1046
sVsubject
p1047
Vhttp://dbpedia.org/resource/Ganges
p1048
sasVtype
p1049
Vbgp
p1050
sasVvariables
p1051
(lp1052
V?uri
p1053
asVprefixes
p1054
(dp1055
Vres
p1056
Vhttp://dbpedia.org/resource/
p1057
sVdbo
p1058
Vhttp://dbpedia.org/ontology/
p1059
ssVtype
p1060
Vquery
p1061
sVqueryType
p1062
VSELECT
p1063
sa(dp1064
Vdistinct
p1065
I01
sVwhere
p1066
(lp1067
(dp1068
Vtriples
p1069
(lp1070
(dp1071
Vpredicate
p1072
Vhttp://dbpedia.org/ontology/birthYear
p1073
sVobject
p1074
V?uri
p1075
sVsubject
p1076
Vhttp://dbpedia.org/resource/Rachel_Stevens
p1077
sasVtype
p1078
Vbgp
p1079
sasVvariables
p1080
(lp1081
V?uri
p1082
asVprefixes
p1083
(dp1084
sVtype
p1085
Vquery
p1086
sVqueryType
p1087
VSELECT
p1088
sa(dp1089
Vprefixes
p1090
(dp1091
Vres
p1092
Vhttp://dbpedia.org/resource/
p1093
sVdbo
p1094
Vhttp://dbpedia.org/ontology/
p1095
ssVtype
p1096
Vquery
p1097
sVwhere
p1098
(lp1099
(dp1100
Vtriples
p1101
(lp1102
(dp1103
Vpredicate
p1104
Vhttp://dbpedia.org/ontology/party
p1105
sVobject
p1106
Vhttp://dbpedia.org/resource/Democratic_Party_(United_States)
p1107
sVsubject
p1108
Vhttp://dbpedia.org/resource/Barack_Obama
p1109
sasVtype
p1110
Vbgp
p1111
sasVqueryType
p1112
VASK
p1113
sa(dp1114
Vdistinct
p1115
I01
sVwhere
p1116
(lp1117
(dp1118
Vtriples
p1119
(lp1120
(dp1121
Vpredicate
p1122
Vhttp://dbpedia.org/ontology/birthPlace
p1123
sVobject
p1124
V?uri
p1125
sVsubject
p1126
Vhttp://dbpedia.org/resource/Johann_Sebastian_Bach
p1127
sasVtype
p1128
Vbgp
p1129
sasVvariables
p1130
(lp1131
V?uri
p1132
asVprefixes
p1133
(dp1134
Vres
p1135
Vhttp://dbpedia.org/resource/
p1136
sVdbo
p1137
Vhttp://dbpedia.org/ontology/
p1138
ssVtype
p1139
Vquery
p1140
sVqueryType
p1141
VSELECT
p1142
sa(dp1143
Vprefixes
p1144
(dp1145
sVtype
p1146
Vquery
p1147
sVvariables
p1148
(lp1149
(dp1150
Vvariable
p1151
V?c
p1152
sVexpression
p1153
(dp1154
Vdistinct
p1155
I01
sVtype
p1156
Vaggregate
p1157
sVexpression
p1158
V?uri
p1159
sVaggregation
p1160
Vcount
p1161
ssasVwhere
p1162
(lp1163
(dp1164
Vtriples
p1165
(lp1166
(dp1167
Vpredicate
p1168
Vhttp://dbpedia.org/ontology/spouse
p1169
sVobject
p1170
V?uri
p1171
sVsubject
p1172
Vhttp://dbpedia.org/resource/Jane_Fonda
p1173
sasVtype
p1174
Vbgp
p1175
sasVqueryType
p1176
VSELECT
p1177
sa(dp1178
Vdistinct
p1179
I01
sVwhere
p1180
(lp1181
(dp1182
Vtriples
p1183
(lp1184
(dp1185
Vpredicate
p1186
Vhttp://dbpedia.org/ontology/firstAscentPerson
p1187
sVobject
p1188
V?uri
p1189
sVsubject
p1190
Vhttp://dbpedia.org/resource/Mount_Everest
p1191
sasVtype
p1192
Vbgp
p1193
sasVvariables
p1194
(lp1195
V?uri
p1196
asVprefixes
p1197
(dp1198
Vres
p1199
Vhttp://dbpedia.org/resource/
p1200
sVdbo
p1201
Vhttp://dbpedia.org/ontology/
p1202
ssVtype
p1203
Vquery
p1204
sVqueryType
p1205
VSELECT
p1206
sa(dp1207
Vdistinct
p1208
I01
sVwhere
p1209
(lp1210
(dp1211
Vtriples
p1212
(lp1213
(dp1214
Vpredicate
p1215
Vhttp://dbpedia.org/ontology/populationTotal
p1216
sVobject
p1217
V?uri
p1218
sVsubject
p1219
Vhttp://dbpedia.org/resource/Poland
p1220
sasVtype
p1221
Vbgp
p1222
sasVvariables
p1223
(lp1224
V?uri
p1225
asVprefixes
p1226
(dp1227
sVtype
p1228
Vquery
p1229
sVqueryType
p1230
VSELECT
p1231
sa(dp1232
Vprefixes
p1233
(dp1234
sVtype
p1235
Vquery
p1236
sVvariables
p1237
(lp1238
V?uri
p1239
asVwhere
p1240
(lp1241
(dp1242
Vtriples
p1243
(lp1244
(dp1245
Vpredicate
p1246
Vhttp://dbpedia.org/ontology/location
p1247
sVobject
p1248
V?uri
p1249
sVsubject
p1250
Vhttp://dbpedia.org/resource/Palace_of_Westminster
p1251
sasVtype
p1252
Vbgp
p1253
sasVqueryType
p1254
VSELECT
p1255
sa(dp1256
Vprefixes
p1257
(dp1258
Vres
p1259
Vhttp://dbpedia.org/resource/
p1260
sVdbo
p1261
Vhttp://dbpedia.org/ontology/
p1262
ssVtype
p1263
Vquery
p1264
sVwhere
p1265
(lp1266
(dp1267
Vtriples
p1268
(lp1269
(dp1270
Vpredicate
p1271
Vhttp://dbpedia.org/ontology/starring
p1272
sVobject
p1273
Vhttp://dbpedia.org/resource/Christian_Bale
p1274
sVsubject
p1275
Vhttp://dbpedia.org/resource/Batman_Begins
p1276
sasVtype
p1277
Vbgp
p1278
sasVqueryType
p1279
VASK
p1280
sa(dp1281
Vdistinct
p1282
I01
sVwhere
p1283
(lp1284
(dp1285
Vtriples
p1286
(lp1287
(dp1288
Vpredicate
p1289
Vhttp://dbpedia.org/ontology/country
p1290
sVobject
p1291
V?uri
p1292
sVsubject
p1293
Vhttp://dbpedia.org/resource/Limerick_Lake
p1294
sasVtype
p1295
Vbgp
p1296
sasVvariables
p1297
(lp1298
V?uri
p1299
asVprefixes
p1300
(dp1301
Vres
p1302
Vhttp://dbpedia.org/resource/
p1303
sVdbo
p1304
Vhttp://dbpedia.org/ontology/
p1305
ssVtype
p1306
Vquery
p1307
sVqueryType
p1308
VSELECT
p1309
sa(dp1310
Vdistinct
p1311
I01
sVtype
p1312
Vquery
p1313
sVvariables
p1314
(lp1315
V?uri
p1316
asVorder
p1317
(lp1318
(dp1319
Vdescending
p1320
I01
sVexpression
p1321
V?date
p1322
sasVprefixes
p1323
(dp1324
sVlimit
p1325
I1
sVwhere
p1326
(lp1327
(dp1328
Vtriples
p1329
(lp1330
(dp1331
Vpredicate
p1332
Vhttp://www.w3.org/1999/02/22-rdf-syntax-ns#type
p1333
sVobject
p1334
Vhttp://dbpedia.org/ontology/Film
p1335
sVsubject
p1336
V?uri
p1337
sa(dp1338
Vpredicate
p1339
Vhttp://dbpedia.org/ontology/starring
p1340
sVobject
p1341
Vhttp://dbpedia.org/resource/Alec_Guinness
p1342
sVsubject
p1343
V?uri
p1344
sa(dp1345
Vpredicate
p1346
Vhttp://dbpedia.org/ontology/releaseDate
p1347
sVobject
p1348
V?date
p1349
sVsubject
p1350
V?uri
p1351
sasVtype
p1352
Vbgp
p1353
sasVqueryType
p1354
VSELECT
p1355
sa(dp1356
Vdistinct
p1357
I01
sVtype
p1358
Vquery
p1359
sVvariables
p1360
(lp1361
V?uri
p1362
asVorder
p1363
(lp1364
(dp1365
Vdescending
p1366
I01
sVexpression
p1367
V?elevation
p1368
sasVprefixes
p1369
(dp1370
Vres
p1371
Vhttp://dbpedia.org/resource/
p1372
sVrdf
p1373
Vhttp://www.w3.org/1999/02/22-rdf-syntax-ns#
p1374
sVdbo
p1375
Vhttp://dbpedia.org/ontology/
p1376
ssVlimit
p1377
I1
sVwhere
p1378
(lp1379
(dp1380
Vtriples
p1381
(lp1382
(dp1383
Vpredicate
p1384
Vhttp://www.w3.org/1999/02/22-rdf-syntax-ns#type
p1385
sVobject
p1386
Vhttp://dbpedia.org/ontology/Mountain
p1387
sVsubject
p1388
V?uri
p1389
sa(dp1390
Vpredicate
p1391
Vhttp://dbpedia.org/ontology/locatedInArea
p1392
sVobject
p1393
Vhttp://dbpedia.org/resource/Australia
p1394
sVsubject
p1395
V?uri
p1396
sa(dp1397
Vpredicate
p1398
Vhttp://dbpedia.org/ontology/elevation
p1399
sVobject
p1400
V?elevation
p1401
sVsubject
p1402
V?uri
p1403
sasVtype
p1404
Vbgp
p1405
sasVqueryType
p1406
VSELECT
p1407
sa(dp1408
Vprefixes
p1409
(dp1410
Vres
p1411
Vhttp://dbpedia.org/resource/
p1412
sVdbo
p1413
Vhttp://dbpedia.org/ontology/
p1414
ssVtype
p1415
Vquery
p1416
sVwhere
p1417
(lp1418
(dp1419
Vpatterns
p1420
(lp1421
(dp1422
Vtriples
p1423
(lp1424
(dp1425
Vpredicate
p1426
Vhttp://dbpedia.org/ontology/deathDate
p1427
sVobject
p1428
V?date
p1429
sVsubject
p1430
Vhttp://dbpedia.org/resource/Frank_Herbert
p1431
sasVtype
p1432
Vbgp
p1433
sasVtype
p1434
Voptional
p1435
sa(dp1436
Vexpression
p1437
(dp1438
Voperator
p1439
V!
p1440
sVargs
p1441
(lp1442
(dp1443
Voperator
p1444
Vbound
p1445
sVargs
p1446
(lp1447
V?date
p1448
asVtype
p1449
Voperation
p1450
sasVtype
p1451
Voperation
p1452
ssVtype
p1453
Vfilter
p1454
sasVqueryType
p1455
VASK
p1456
sa(dp1457
Vdistinct
p1458
I01
sVwhere
p1459
(lp1460
(dp1461
Vtriples
p1462
(lp1463
(dp1464
Vpredicate
p1465
Vhttp://dbpedia.org/ontology/creator
p1466
sVobject
p1467
V?uri
p1468
sVsubject
p1469
Vhttp://dbpedia.org/resource/Family_Guy
p1470
sasVtype
p1471
Vbgp
p1472
sasVvariables
p1473
(lp1474
V?uri
p1475
asVprefixes
p1476
(dp1477
sVtype
p1478
Vquery
p1479
sVqueryType
p1480
VSELECT
p1481
sa(dp1482
Vdistinct
p1483
I01
sVwhere
p1484
(lp1485
(dp1486
Vtriples
p1487
(lp1488
(dp1489
Vpredicate
p1490
Vhttp://dbpedia.org/ontology/officialLanguage
p1491
sVobject
p1492
V?uri
p1493
sVsubject
p1494
Vhttp://dbpedia.org/resource/Suriname
p1495
sasVtype
p1496
Vbgp
p1497
sasVvariables
p1498
(lp1499
V?uri
p1500
asVprefixes
p1501
(dp1502
Vres
p1503
Vhttp://dbpedia.org/resource/
p1504
sVdbo
p1505
Vhttp://dbpedia.org/ontology/
p1506
ssVtype
p1507
Vquery
p1508
sVqueryType
p1509
VSELECT
p1510
sa(dp1511
Vdistinct
p1512
I01
sVwhere
p1513
(lp1514
(dp1515
Vtriples
p1516
(lp1517
(dp1518
Vpredicate
p1519
Vhttp://dbpedia.org/ontology/writer
p1520
sVobject
p1521
V?uri
p1522
sVsubject
p1523
Vhttp://dbpedia.org/resource/Hotel_California
p1524
sasVtype
p1525
Vbgp
p1526
sasVvariables
p1527
(lp1528
V?uri
p1529
asVprefixes
p1530
(dp1531
sVtype
p1532
Vquery
p1533
sVqueryType
p1534
VSELECT
p1535
sa(dp1536
Vdistinct
p1537
I01
sVwhere
p1538
(lp1539
(dp1540
Vtriples
p1541
(lp1542
(dp1543
Vpredicate
p1544
Vhttp://dbpedia.org/ontology/director
p1545
sVobject
p1546
Vhttp://dbpedia.org/resource/William_Shatner
p1547
sVsubject
p1548
V?x
p1549
sa(dp1550
Vpredicate
p1551
Vhttp://dbpedia.org/ontology/starring
p1552
sVobject
p1553
V?uri
p1554
sVsubject
p1555
V?x
p1556
sasVtype
p1557
Vbgp
p1558
sasVvariables
p1559
(lp1560
V?uri
p1561
asVprefixes
p1562
(dp1563
sVtype
p1564
Vquery
p1565
sVqueryType
p1566
VSELECT
p1567
sa(dp1568
Vdistinct
p1569
I01
sVwhere
p1570
(lp1571
(dp1572
Vtriples
p1573
(lp1574
(dp1575
Vpredicate
p1576
Vhttp://dbpedia.org/ontology/ingredient
p1577
sVobject
p1578
V?uri
p1579
sVsubject
p1580
Vhttp://dbpedia.org/resource/Chocolate_chip_cookie
p1581
sasVtype
p1582
Vbgp
p1583
sasVvariables
p1584
(lp1585
V?uri
p1586
asVprefixes
p1587
(dp1588
sVtype
p1589
Vquery
p1590
sVqueryType
p1591
VSELECT
p1592
sa(dp1593
Vdistinct
p1594
I01
sVwhere
p1595
(lp1596
(dp1597
Vtriples
p1598
(lp1599
(dp1600
Vpredicate
p1601
Vhttp://dbpedia.org/ontology/occupation
p1602
sVobject
p1603
Vhttp://dbpedia.org/resource/Skateboarding
p1604
sVsubject
p1605
V?uri
p1606
sasVtype
p1607
Vbgp
p1608
sa(dp1609
Vpatterns
p1610
(lp1611
(dp1612
Vtriples
p1613
(lp1614
(dp1615
Vpredicate
p1616
Vhttp://dbpedia.org/ontology/birthPlace
p1617
sVobject
p1618
Vhttp://dbpedia.org/resource/Sweden
p1619
sVsubject
p1620
V?uri
p1621
sasVtype
p1622
Vbgp
p1623
sa(dp1624
Vtriples
p1625
(lp1626
(dp1627
Vpredicate
p1628
Vhttp://dbpedia.org/ontology/birthPlace
p1629
sVobject
p1630
V?place
p1631
sVsubject
p1632
V?uri
p1633
sa(dp1634
Vpredicate
p1635
Vhttp://dbpedia.org/ontology/country
p1636
sVobject
p1637
Vhttp://dbpedia.org/resource/Sweden
p1638
sVsubject
p1639
V?place
p1640
sasVtype
p1641
Vbgp
p1642
sasVtype
p1643
Vunion
p1644
sasVvariables
p1645
(lp1646
V?uri
p1647
asVprefixes
p1648
(dp1649
Vdbp
p1650
Vhttp://dbpedia.org/property/
p1651
sVdbo
p1652
Vhttp://dbpedia.org/ontology/
p1653
sVres
p1654
Vhttp://dbpedia.org/resource/
p1655
ssVtype
p1656
Vquery
p1657
sVqueryType
p1658
VSELECT
p1659
sa(dp1660
Vdistinct
p1661
I01
sVwhere
p1662
(lp1663
(dp1664
Vtriples
p1665
(lp1666
(dp1667
Vpredicate
p1668
Vhttp://dbpedia.org/ontology/ingredient
p1669
sVobject
p1670
V?uri
p1671
sVsubject
p1672
Vhttp://dbpedia.org/resource/Carrot_cake
p1673
sasVtype
p1674
Vbgp
p1675
sasVvariables
p1676
(lp1677
V?uri
p1678
asVprefixes
p1679
(dp1680
sVtype
p1681
Vquery
p1682
sVqueryType
p1683
VSELECT
p1684
sa(dp1685
Vprefixes
p1686
(dp1687
sVtype
p1688
Vquery
p1689
sVwhere
p1690
(lp1691
(dp1692
Vtriples
p1693
(lp1694
(dp1695
Vpredicate
p1696
Vhttp://dbpedia.org/ontology/team
p1697
sVobject
p1698
Vhttp://dbpedia.org/resource/Real_Madrid_C.F.
p1699
sVsubject
p1700
Vhttp://dbpedia.org/resource/Neymar
p1701
sasVtype
p1702
Vbgp
p1703
sasVqueryType
p1704
VASK
p1705
sa(dp1706
Vdistinct
p1707
I01
sVwhere
p1708
(lp1709
(dp1710
Vpatterns
p1711
(lp1712
(dp1713
Vtriples
p1714
(lp1715
(dp1716
Vpredicate
p1717
Vhttp://dbpedia.org/ontology/field
p1718
sVobject
p1719
Vhttp://dbpedia.org/resource/Computer_science
p1720
sVsubject
p1721
V?uri
p1722
sasVtype
p1723
Vbgp
p1724
sa(dp1725
Vpatterns
p1726
(lp1727
(dp1728
Vtriples
p1729
(lp1730
(dp1731
Vpredicate
p1732
Vhttp://purl.org/dc/elements/1.1/description
p1733
sVobject
p1734
V?s
p1735
sVsubject
p1736
V?uri
p1737
sasVtype
p1738
Vbgp
p1739
sa(dp1740
Vexpression
p1741
(dp1742
Voperator
p1743
Vregex
p1744
sVargs
p1745
(lp1746
V?s
p1747
aV"computer scientist"
p1748
aV"i"
p1749
asVtype
p1750
Voperation
p1751
ssVtype
p1752
Vfilter
p1753
sasVtype
p1754
Vgroup
p1755
sasVtype
p1756
Vunion
p1757
sa(dp1758
Vtriples
p1759
(lp1760
(dp1761
Vpredicate
p1762
Vhttp://dbpedia.org/ontology/award
p1763
sVobject
p1764
Vhttp://dbpedia.org/resource/Academy_Awards
p1765
sVsubject
p1766
V?uri
p1767
sasVtype
p1768
Vbgp
p1769
sasVvariables
p1770
(lp1771
V?uri
p1772
asVprefixes
p1773
(dp1774
sVtype
p1775
Vquery
p1776
sVqueryType
p1777
VSELECT
p1778
sa(dp1779
Vprefixes
p1780
(dp1781
sVtype
p1782
Vquery
p1783
sVvariables
p1784
(lp1785
(dp1786
Vvariable
p1787
V?c
p1788
sVexpression
p1789
(dp1790
Vdistinct
p1791
I01
sVtype
p1792
Vaggregate
p1793
sVexpression
p1794
V?uri
p1795
sVaggregation
p1796
Vcount
p1797
ssasVwhere
p1798
(lp1799
(dp1800
Vtriples
p1801
(lp1802
(dp1803
Vpredicate
p1804
Vhttp://www.w3.org/1999/02/22-rdf-syntax-ns#type
p1805
sVobject
p1806
Vhttp://dbpedia.org/ontology/Company
p1807
sVsubject
p1808
V?uri
p1809
sa(dp1810
Vpredicate
p1811
Vhttp://dbpedia.org/ontology/foundingYear
p1812
sVobject
p1813
V?year
p1814
sVsubject
p1815
V?uri
p1816
sa(dp1817
Vpredicate
p1818
Vhttp://dbpedia.org/ontology/foundingYear
p1819
sVobject
p1820
V?year
p1821
sVsubject
p1822
Vhttp://dbpedia.org/resource/Google
p1823
sasVtype
p1824
Vbgp
p1825
sasVqueryType
p1826
VSELECT
p1827
sa(dp1828
Vdistinct
p1829
I01
sVwhere
p1830
(lp1831
(dp1832
Vtriples
p1833
(lp1834
(dp1835
Vpredicate
p1836
Vhttp://dbpedia.org/ontology/headquarter
p1837
sVobject
p1838
V?uri
p1839
sVsubject
p1840
Vhttp://dbpedia.org/resource/Secret_Intelligence_Service
p1841
sa(dp1842
Vpredicate
p1843
Vhttp://dbpedia.org/ontology/country
p1844
sVobject
p1845
Vhttp://dbpedia.org/resource/United_Kingdom
p1846
sVsubject
p1847
V?uri
p1848
sasVtype
p1849
Vbgp
p1850
sasVvariables
p1851
(lp1852
V?uri
p1853
asVprefixes
p1854
(dp1855
Vres
p1856
Vhttp://dbpedia.org/resource/
p1857
sVrdf
p1858
Vhttp://www.w3.org/1999/02/22-rdf-syntax-ns#
p1859
sVdbo
p1860
Vhttp://dbpedia.org/ontology/
p1861
ssVtype
p1862
Vquery
p1863
sVqueryType
p1864
VSELECT
p1865
sa(dp1866
Vprefixes
p1867
(dp1868
Vres
p1869
Vhttp://dbpedia.org/resource/
p1870
sVdbo
p1871
Vhttp://dbpedia.org/ontology/
p1872
ssVtype
p1873
Vquery
p1874
sVwhere
p1875
(lp1876
(dp1877
Vtriples
p1878
(lp1879
(dp1880
Vpredicate
p1881
Vhttp://dbpedia.org/ontology/date
p1882
sVobject
p1883
V?x
p1884
sVsubject
p1885
Vhttp://dbpedia.org/resource/Cuban_Missile_Crisis
p1886
sa(dp1887
Vpredicate
p1888
Vhttp://dbpedia.org/ontology/date
p1889
sVobject
p1890
V?y
p1891
sVsubject
p1892
Vhttp://dbpedia.org/resource/Bay_of_Pigs_Invasion
p1893
sasVtype
p1894
Vbgp
p1895
sa(dp1896
Vexpression
p1897
(dp1898
Voperator
p1899
V<
p1900
sVargs
p1901
(lp1902
V?x
p1903
aV?y
p1904
asVtype
p1905
Voperation
p1906
ssVtype
p1907
Vfilter
p1908
sasVqueryType
p1909
VASK
p1910
sa(dp1911
Vdistinct
p1912
I01
sVwhere
p1913
(lp1914
(dp1915
Vtriples
p1916
(lp1917
(dp1918
Vpredicate
p1919
Vhttp://dbpedia.org/ontology/abbreviation
p1920
sVobject
p1921
V"IYCM"
p1922
sVsubject
p1923
V?uri
p1924
sasVtype
p1925
Vbgp
p1926
sasVvariables
p1927
(lp1928
V?uri
p1929
asVprefixes
p1930
(dp1931
Vres
p1932
Vhttp://dbpedia.org/resource/
p1933
sVdbo
p1934
Vhttp://dbpedia.org/ontology/
p1935
ssVtype
p1936
Vquery
p1937
sVqueryType
p1938
VSELECT
p1939
sa(dp1940
Vdistinct
p1941
I01
sVwhere
p1942
(lp1943
(dp1944
Vtriples
p1945
(lp1946
(dp1947
Vpredicate
p1948
Vhttp://dbpedia.org/ontology/dissolutionDate
p1949
sVobject
p1950
V?date
p1951
sVsubject
p1952
Vhttp://dbpedia.org/resource/Ming_dynasty
p1953
sasVtype
p1954
Vbgp
p1955
sasVvariables
p1956
(lp1957
V?date
p1958
asVprefixes
p1959
(dp1960
Vres
p1961
Vhttp://dbpedia.org/resource/
p1962
sVdbo
p1963
Vhttp://dbpedia.org/ontology/
p1964
ssVtype
p1965
Vquery
p1966
sVqueryType
p1967
VSELECT
p1968
sa(dp1969
Vdistinct
p1970
I01
sVwhere
p1971
(lp1972
(dp1973
Vtriples
p1974
(lp1975
(dp1976
Vpredicate
p1977
Vhttp://dbpedia.org/ontology/series
p1978
sVobject
p1979
Vhttp://dbpedia.org/resource/The_Sopranos
p1980
sVsubject
p1981
V?uri
p1982
sa(dp1983
Vpredicate
p1984
Vhttp://dbpedia.org/ontology/seasonNumber
p1985
sVobject
p1986
V"1"^^http://www.w3.org/2001/XMLSchema#integer
p1987
sVsubject
p1988
V?uri
p1989
sasVtype
p1990
Vbgp
p1991
sasVvariables
p1992
(lp1993
V?uri
p1994
asVprefixes
p1995
(dp1996
Vres
p1997
Vhttp://dbpedia.org/resource/
p1998
sVdbo
p1999
Vhttp://dbpedia.org/ontology/
p2000
ssVtype
p2001
Vquery
p2002
sVqueryType
p2003
VSELECT
p2004
sa(dp2005
Vprefixes
p2006
(dp2007
Vdbo
p2008
Vhttp://dbpedia.org/ontology/
p2009
ssVtype
p2010
Vquery
p2011
sVvariables
p2012
(lp2013
V?uri
p2014
asVwhere
p2015
(lp2016
(dp2017
Vtriples
p2018
(lp2019
(dp2020
Vpredicate
p2021
Vhttp://dbpedia.org/ontology/populationTotal
p2022
sVobject
p2023
V?uri
p2024
sVsubject
p2025
Vhttp://dbpedia.org/resource/Melbourne,_Florida
p2026
sasVtype
p2027
Vbgp
p2028
sasVqueryType
p2029
VSELECT
p2030
sa(dp2031
Vprefixes
p2032
(dp2033
Vres
p2034
Vhttp://dbpedia.org/resource/
p2035
sVrdf
p2036
Vhttp://www.w3.org/1999/02/22-rdf-syntax-ns#
p2037
sVdbo
p2038
Vhttp://dbpedia.org/ontology/
p2039
ssVtype
p2040
Vquery
p2041
sVwhere
p2042
(lp2043
(dp2044
Vtriples
p2045
(lp2046
(dp2047
Vpredicate
p2048
Vhttp://dbpedia.org/ontology/almaMater
p2049
sVobject
p2050
V?x
p2051
sVsubject
p2052
Vhttp://dbpedia.org/resource/Arnold_Schwarzenegger
p2053
sa(dp2054
Vpredicate
p2055
Vhttp://www.w3.org/1999/02/22-rdf-syntax-ns#type
p2056
sVobject
p2057
Vhttp://dbpedia.org/ontology/University
p2058
sVsubject
p2059
V?x
p2060
sasVtype
p2061
Vbgp
p2062
sasVqueryType
p2063
VASK
p2064
sa(dp2065
Vdistinct
p2066
I01
sVwhere
p2067
(lp2068
(dp2069
Vtriples
p2070
(lp2071
(dp2072
Vpredicate
p2073
Vhttp://dbpedia.org/ontology/locatedInArea
p2074
sVobject
p2075
V?uri
p2076
sVsubject
p2077
Vhttp://dbpedia.org/resource/Mount_Everest
p2078
sa(dp2079
Vpredicate
p2080
Vhttp://www.w3.org/1999/02/22-rdf-syntax-ns#type
p2081
sVobject
p2082
Vhttp://dbpedia.org/ontology/Country
p2083
sVsubject
p2084
V?uri
p2085
sasVtype
p2086
Vbgp
p2087
sasVvariables
p2088
(lp2089
V?uri
p2090
asVprefixes
p2091
(dp2092
Vres
p2093
Vhttp://dbpedia.org/resource/
p2094
sVrdf
p2095
Vhttp://www.w3.org/1999/02/22-rdf-syntax-ns#
p2096
sVdbo
p2097
Vhttp://dbpedia.org/ontology/
p2098
ssVtype
p2099
Vquery
p2100
sVqueryType
p2101
VSELECT
p2102
sa(dp2103
Vdistinct
p2104
I01
sVwhere
p2105
(lp2106
(dp2107
Vtriples
p2108
(lp2109
(dp2110
Vpredicate
p2111
Vhttp://dbpedia.org/ontology/largestCity
p2112
sVobject
p2113
V?uri
p2114
sVsubject
p2115
Vhttp://dbpedia.org/resource/Australia
p2116
sasVtype
p2117
Vbgp
p2118
sasVvariables
p2119
(lp2120
V?uri
p2121
asVprefixes
p2122
(dp2123
Vres
p2124
Vhttp://dbpedia.org/resource/
p2125
sVdbo
p2126
Vhttp://dbpedia.org/ontology/
p2127
ssVtype
p2128
Vquery
p2129
sVqueryType
p2130
VSELECT
p2131
sa(dp2132
Vdistinct
p2133
I01
sVwhere
p2134
(lp2135
(dp2136
Vtriples
p2137
(lp2138
(dp2139
Vpredicate
p2140
Vhttp://www.w3.org/1999/02/22-rdf-syntax-ns#type
p2141
sVobject
p2142
Vhttp://dbpedia.org/ontology/LaunchPad
p2143
sVsubject
p2144
V?uri
p2145
sa(dp2146
Vpredicate
p2147
Vhttp://dbpedia.org/ontology/operator
p2148
sVobject
p2149
Vhttp://dbpedia.org/resource/NASA
p2150
sVsubject
p2151
V?uri
p2152
sasVtype
p2153
Vbgp
p2154
sasVvariables
p2155
(lp2156
V?uri
p2157
asVprefixes
p2158
(dp2159
Vres
p2160
Vhttp://dbpedia.org/resource/
p2161
sVrdf
p2162
Vhttp://www.w3.org/1999/02/22-rdf-syntax-ns#
p2163
sVdbo
p2164
Vhttp://dbpedia.org/ontology/
p2165
ssVtype
p2166
Vquery
p2167
sVqueryType
p2168
VSELECT
p2169
sa(dp2170
Vdistinct
p2171
I01
sVwhere
p2172
(lp2173
(dp2174
Vtriples
p2175
(lp2176
(dp2177
Vpredicate
p2178
Vhttp://dbpedia.org/ontology/leaderName
p2179
sVobject
p2180
V?uri
p2181
sVsubject
p2182
Vhttp://dbpedia.org/resource/Tel_Aviv
p2183
sasVtype
p2184
Vbgp
p2185
sasVvariables
p2186
(lp2187
V?uri
p2188
asVprefixes
p2189
(dp2190
Vres
p2191
Vhttp://dbpedia.org/resource/
p2192
sVdbo
p2193
Vhttp://dbpedia.org/ontology/
p2194
ssVtype
p2195
Vquery
p2196
sVqueryType
p2197
VSELECT
p2198
sa(dp2199
Vdistinct
p2200
I01
sVwhere
p2201
(lp2202
(dp2203
Vtriples
p2204
(lp2205
(dp2206
Vpredicate
p2207
Vhttp://dbpedia.org/ontology/series
p2208
sVobject
p2209
Vhttp://dbpedia.org/resource/The_Sopranos
p2210
sVsubject
p2211
V?uri
p2212
sa(dp2213
Vpredicate
p2214
Vhttp://dbpedia.org/ontology/seasonNumber
p2215
sVobject
p2216
V"1"^^http://www.w3.org/2001/XMLSchema#integer
p2217
sVsubject
p2218
V?uri
p2219
sasVtype
p2220
Vbgp
p2221
sasVvariables
p2222
(lp2223
V?uri
p2224
asVprefixes
p2225
(dp2226
Vres
p2227
Vhttp://dbpedia.org/resource/
p2228
sVdbo
p2229
Vhttp://dbpedia.org/ontology/
p2230
ssVtype
p2231
Vquery
p2232
sVqueryType
p2233
VSELECT
p2234
sa(dp2235
Vdistinct
p2236
I01
sVwhere
p2237
(lp2238
(dp2239
Vtriples
p2240
(lp2241
(dp2242
Vpredicate
p2243
Vhttp://dbpedia.org/ontology/creator
p2244
sVobject
p2245
V?uri
p2246
sVsubject
p2247
Vhttp://dbpedia.org/resource/Batman
p2248
sasVtype
p2249
Vbgp
p2250
sasVvariables
p2251
(lp2252
V?uri
p2253
asVprefixes
p2254
(dp2255
sVtype
p2256
Vquery
p2257
sVqueryType
p2258
VSELECT
p2259
sa(dp2260
Vdistinct
p2261
I01
sVwhere
p2262
(lp2263
(dp2264
Vtriples
p2265
(lp2266
(dp2267
Vpredicate
p2268
Vhttp://dbpedia.org/ontology/portrayer
p2269
sVobject
p2270
V?uri
p2271
sVsubject
p2272
Vhttp://dbpedia.org/resource/Gus_Fring
p2273
sasVtype
p2274
Vbgp
p2275
sasVvariables
p2276
(lp2277
V?uri
p2278
asVprefixes
p2279
(dp2280
sVtype
p2281
Vquery
p2282
sVqueryType
p2283
VSELECT
p2284
sa(dp2285
Vdistinct
p2286
I01
sVwhere
p2287
(lp2288
(dp2289
Vtriples
p2290
(lp2291
(dp2292
Vpredicate
p2293
Vhttp://dbpedia.org/ontology/programmingLanguage
p2294
sVobject
p2295
V?uri
p2296
sVsubject
p2297
Vhttp://dbpedia.org/resource/GIMP
p2298
sasVtype
p2299
Vbgp
p2300
sasVvariables
p2301
(lp2302
V?uri
p2303
asVprefixes
p2304
(dp2305
Vres
p2306
Vhttp://dbpedia.org/resource/
p2307
sVdbo
p2308
Vhttp://dbpedia.org/ontology/
p2309
ssVtype
p2310
Vquery
p2311
sVqueryType
p2312
VSELECT
p2313
sa(dp2314
Vdistinct
p2315
I01
sVwhere
p2316
(lp2317
(dp2318
Vtriples
p2319
(lp2320
(dp2321
Vpredicate
p2322
Vhttp://dbpedia.org/ontology/currency
p2323
sVobject
p2324
Vhttp://dbpedia.org/resource/Cocoa_bean
p2325
sVsubject
p2326
V?uri
p2327
sasVtype
p2328
Vbgp
p2329
sasVvariables
p2330
(lp2331
V?uri
p2332
asVprefixes
p2333
(dp2334
sVtype
p2335
Vquery
p2336
sVqueryType
p2337
VSELECT
p2338
sa(dp2339
Vdistinct
p2340
I01
sVwhere
p2341
(lp2342
(dp2343
Vtriples
p2344
(lp2345
(dp2346
Vpredicate
p2347
Vhttp://dbpedia.org/ontology/editor
p2348
sVobject
p2349
V?uri
p2350
sVsubject
p2351
Vhttp://dbpedia.org/resource/Forbes
p2352
sasVtype
p2353
Vbgp
p2354
sasVvariables
p2355
(lp2356
V?uri
p2357
asVprefixes
p2358
(dp2359
Vres
p2360
Vhttp://dbpedia.org/resource/
p2361
sVdbo
p2362
Vhttp://dbpedia.org/ontology/
p2363
ssVtype
p2364
Vquery
p2365
sVqueryType
p2366
VSELECT
p2367
sa(dp2368
Vdistinct
p2369
I01
sVwhere
p2370
(lp2371
(dp2372
Vtriples
p2373
(lp2374
(dp2375
Vpredicate
p2376
Vhttp://dbpedia.org/ontology/capital
p2377
sVobject
p2378
V?x
p2379
sVsubject
p2380
Vhttp://dbpedia.org/resource/Australia
p2381
sa(dp2382
Vpredicate
p2383
Vhttp://dbpedia.org/ontology/populationTotal
p2384
sVobject
p2385
V?num
p2386
sVsubject
p2387
V?x
p2388
sasVtype
p2389
Vbgp
p2390
sasVvariables
p2391
(lp2392
V?num
p2393
asVprefixes
p2394
(dp2395
Vres
p2396
Vhttp://dbpedia.org/resource/
p2397
sVdbo
p2398
Vhttp://dbpedia.org/ontology/
p2399
ssVtype
p2400
Vquery
p2401
sVqueryType
p2402
VSELECT
p2403
sa(dp2404
Vdistinct
p2405
I01
sVwhere
p2406
(lp2407
(dp2408
Vtriples
p2409
(lp2410
(dp2411
Vpredicate
p2412
Vhttp://dbpedia.org/ontology/occupation
p2413
sVobject
p2414
Vhttp://dbpedia.org/resource/Surfing
p2415
sVsubject
p2416
V?uri
p2417
sa(dp2418
Vpredicate
p2419
Vhttp://dbpedia.org/ontology/birthPlace
p2420
sVobject
p2421
Vhttp://dbpedia.org/resource/Australia
p2422
sVsubject
p2423
V?uri
p2424
sasVtype
p2425
Vbgp
p2426
sasVvariables
p2427
(lp2428
V?uri
p2429
asVprefixes
p2430
(dp2431
Vres
p2432
Vhttp://dbpedia.org/resource/
p2433
sVdbo
p2434
Vhttp://dbpedia.org/ontology/
p2435
ssVtype
p2436
Vquery
p2437
sVqueryType
p2438
VSELECT
p2439
sa(dp2440
Vdistinct
p2441
I01
sVwhere
p2442
(lp2443
(dp2444
Vtriples
p2445
(lp2446
(dp2447
Vpredicate
p2448
Vhttp://www.w3.org/1999/02/22-rdf-syntax-ns#type
p2449
sVobject
p2450
Vhttp://dbpedia.org/ontology/Company
p2451
sVsubject
p2452
V?uri
p2453
sa(dp2454
Vpredicate
p2455
Vhttp://dbpedia.org/ontology/industry
p2456
sVobject
p2457
Vhttp://dbpedia.org/resource/Electronics
p2458
sVsubject
p2459
V?uri
p2460
sa(dp2461
Vpredicate
p2462
Vhttp://dbpedia.org/ontology/foundationPlace
p2463
sVobject
p2464
Vhttp://dbpedia.org/resource/Beijing
p2465
sVsubject
p2466
V?uri
p2467
sasVtype
p2468
Vbgp
p2469
sasVvariables
p2470
(lp2471
V?uri
p2472
asVprefixes
p2473
(dp2474
sVtype
p2475
Vquery
p2476
sVqueryType
p2477
VSELECT
p2478
sa(dp2479
Vdistinct
p2480
I01
sVwhere
p2481
(lp2482
(dp2483
Vtriples
p2484
(lp2485
(dp2486
Vpredicate
p2487
Vhttp://www.w3.org/1999/02/22-rdf-syntax-ns#type
p2488
sVobject
p2489
Vhttp://dbpedia.org/ontology/VideoGame
p2490
sVsubject
p2491
V?uri
p2492
sa(dp2493
Vpredicate
p2494
Vhttp://dbpedia.org/ontology/publisher
p2495
sVobject
p2496
Vhttp://dbpedia.org/resource/Mean_Hamster_Software
p2497
sVsubject
p2498
V?uri
p2499
sasVtype
p2500
Vbgp
p2501
sasVvariables
p2502
(lp2503
V?uri
p2504
asVprefixes
p2505
(dp2506
Vres
p2507
Vhttp://dbpedia.org/resource/
p2508
sVrdf
p2509
Vhttp://www.w3.org/1999/02/22-rdf-syntax-ns#
p2510
sVdbo
p2511
Vhttp://dbpedia.org/ontology/
p2512
ssVtype
p2513
Vquery
p2514
sVqueryType
p2515
VSELECT
p2516
sa(dp2517
Vdistinct
p2518
I01
sVwhere
p2519
(lp2520
(dp2521
Vtriples
p2522
(lp2523
(dp2524
Vpredicate
p2525
Vhttp://dbpedia.org/ontology/numberOfLocations
p2526
sVobject
p2527
V?number
p2528
sVsubject
p2529
Vhttp://dbpedia.org/resource/Aldi
p2530
sasVtype
p2531
Vbgp
p2532
sasVvariables
p2533
(lp2534
V?number
p2535
asVprefixes
p2536
(dp2537
sVtype
p2538
Vquery
p2539
sVqueryType
p2540
VSELECT
p2541
sa(dp2542
Vdistinct
p2543
I01
sVwhere
p2544
(lp2545
(dp2546
Vtriples
p2547
(lp2548
(dp2549
Vpredicate
p2550
Vhttp://dbpedia.org/ontology/capital
p2551
sVobject
p2552
V?uri
p2553
sVsubject
p2554
Vhttp://dbpedia.org/resource/Cameroon
p2555
sasVtype
p2556
Vbgp
p2557
sasVvariables
p2558
(lp2559
V?uri
p2560
asVprefixes
p2561
(dp2562
sVtype
p2563
Vquery
p2564
sVqueryType
p2565
VSELECT
p2566
sa(dp2567
Vprefixes
p2568
(dp2569
Vrdf
p2570
Vhttp://www.w3.org/1999/02/22-rdf-syntax-ns#
p2571
sVdbo
p2572
Vhttp://dbpedia.org/ontology/
p2573
sVrdfs
p2574
Vhttp://www.w3.org/2000/01/rdf-schema#
p2575
ssVtype
p2576
Vquery
p2577
sVwhere
p2578
(lp2579
(dp2580
Vtriples
p2581
(lp2582
(dp2583
Vpredicate
p2584
Vhttp://www.w3.org/1999/02/22-rdf-syntax-ns#type
p2585
sVobject
p2586
Vhttp://dbpedia.org/ontology/VideoGame
p2587
sVsubject
p2588
V?uri
p2589
sa(dp2590
Vpredicate
p2591
Vhttp://www.w3.org/2000/01/rdf-schema#label
p2592
sVobject
p2593
V"Battle Chess"@en
p2594
sVsubject
p2595
V?uri
p2596
sasVtype
p2597
Vbgp
p2598
sasVqueryType
p2599
VASK
p2600
sa(dp2601
Vprefixes
p2602
(dp2603
Vres
p2604
Vhttp://dbpedia.org/resource/
p2605
sVdbo
p2606
Vhttp://dbpedia.org/ontology/
p2607
sVrdfs
p2608
Vhttp://www.w3.org/2000/01/rdf-schema#
p2609
ssVtype
p2610
Vquery
p2611
sVwhere
p2612
(lp2613
(dp2614
Vtriples
p2615
(lp2616
(dp2617
Vpredicate
p2618
Vhttp://dbpedia.org/ontology/spouse
p2619
sVobject
p2620
V?spouse
p2621
sVsubject
p2622
Vhttp://dbpedia.org/resource/Abraham_Lincoln
p2623
sa(dp2624
Vpredicate
p2625
Vhttp://www.w3.org/2000/01/rdf-schema#label
p2626
sVobject
p2627
V?name
p2628
sVsubject
p2629
V?spouse
p2630
sasVtype
p2631
Vbgp
p2632
sa(dp2633
Vexpression
p2634
(dp2635
Voperator
p2636
Vregex
p2637
sVargs
p2638
(lp2639
V?name
p2640
aV"Mary"
p2641
asVtype
p2642
Voperation
p2643
ssVtype
p2644
Vfilter
p2645
sasVqueryType
p2646
VASK
p2647
sa(dp2648
Vdistinct
p2649
I01
sVwhere
p2650
(lp2651
(dp2652
Vtriples
p2653
(lp2654
(dp2655
Vpredicate
p2656
Vhttp://www.w3.org/1999/02/22-rdf-syntax-ns#type
p2657
sVobject
p2658
Vhttp://dbpedia.org/ontology/Film
p2659
sVsubject
p2660
V?uri
p2661
sa(dp2662
Vpredicate
p2663
Vhttp://dbpedia.org/ontology/director
p2664
sVobject
p2665
Vhttp://dbpedia.org/resource/Francis_Ford_Coppola
p2666
sVsubject
p2667
V?uri
p2668
sasVtype
p2669
Vbgp
p2670
sasVvariables
p2671
(lp2672
V?uri
p2673
asVprefixes
p2674
(dp2675
sVtype
p2676
Vquery
p2677
sVqueryType
p2678
VSELECT
p2679
sa(dp2680
Vdistinct
p2681
I01
sVtype
p2682
Vquery
p2683
sVvariables
p2684
(lp2685
V?uri
p2686
asVorder
p2687
(lp2688
(dp2689
Vexpression
p2690
V?b
p2691
sasVprefixes
p2692
(dp2693
Vres
p2694
Vhttp://dbpedia.org/resource/
p2695
sVdbo
p2696
Vhttp://dbpedia.org/ontology/
p2697
ssVlimit
p2698
I1
sVoffset
p2699
I0
sVwhere
p2700
(lp2701
(dp2702
Vtriples
p2703
(lp2704
(dp2705
Vpredicate
p2706
Vhttp://dbpedia.org/ontology/director
p2707
sVobject
p2708
Vhttp://dbpedia.org/resource/Tim_Burton
p2709
sVsubject
p2710
V?uri
p2711
sa(dp2712
Vpredicate
p2713
Vhttp://dbpedia.org/ontology/budget
p2714
sVobject
p2715
V?b
p2716
sVsubject
p2717
V?uri
p2718
sasVtype
p2719
Vbgp
p2720
sasVqueryType
p2721
VSELECT
p2722
sa(dp2723
Vprefixes
p2724
(dp2725
Vres
p2726
Vhttp://dbpedia.org/resource/
p2727
sVdbo
p2728
Vhttp://dbpedia.org/ontology/
p2729
ssVtype
p2730
Vquery
p2731
sVwhere
p2732
(lp2733
(dp2734
Vtriples
p2735
(lp2736
(dp2737
Vpredicate
p2738
Vhttp://dbpedia.org/ontology/numberOfEpisodes
p2739
sVobject
p2740
V?x
p2741
sVsubject
p2742
Vhttp://dbpedia.org/resource/Breaking_Bad
p2743
sa(dp2744
Vpredicate
p2745
Vhttp://dbpedia.org/ontology/numberOfEpisodes
p2746
sVobject
p2747
V?y
p2748
sVsubject
p2749
Vhttp://dbpedia.org/resource/Game_of_Thrones
p2750
sasVtype
p2751
Vbgp
p2752
sa(dp2753
Vexpression
p2754
(dp2755
Voperator
p2756
V>
p2757
sVargs
p2758
(lp2759
V?y
p2760
aV?x
p2761
asVtype
p2762
Voperation
p2763
ssVtype
p2764
Vfilter
p2765
sasVqueryType
p2766
VASK
p2767
sa(dp2768
Vdistinct
p2769
I01
sVwhere
p2770
(lp2771
(dp2772
Vtriples
p2773
(lp2774
(dp2775
Vpredicate
p2776
Vhttp://dbpedia.org/property/nickname
p2777
sVobject
p2778
V"Rodzilla"@en
p2779
sVsubject
p2780
V?uri
p2781
sasVtype
p2782
Vbgp
p2783
sasVvariables
p2784
(lp2785
V?uri
p2786
asVprefixes
p2787
(dp2788
Vdbp
p2789
Vhttp://dbpedia.org/property/
p2790
ssVtype
p2791
Vquery
p2792
sVqueryType
p2793
VSELECT
p2794
sa(dp2795
Vprefixes
p2796
(dp2797
Vres
p2798
Vhttp://dbpedia.org/resource/
p2799
sVdbo
p2800
Vhttp://dbpedia.org/ontology/
p2801
ssVtype
p2802
Vquery
p2803
sVwhere
p2804
(lp2805
(dp2806
Vtriples
p2807
(lp2808
(dp2809
Vpredicate
p2810
Vhttp://dbpedia.org/ontology/birthPlace
p2811
sVobject
p2812
V?city
p2813
sVsubject
p2814
Vhttp://dbpedia.org/resource/Natalie_Portman
p2815
sa(dp2816
Vpredicate
p2817
Vhttp://dbpedia.org/ontology/country
p2818
sVobject
p2819
Vhttp://dbpedia.org/resource/United_States
p2820
sVsubject
p2821
V?city
p2822
sasVtype
p2823
Vbgp
p2824
sasVqueryType
p2825
VASK
p2826
sa(dp2827
Vdistinct
p2828
I01
sVwhere
p2829
(lp2830
(dp2831
Vtriples
p2832
(lp2833
(dp2834
Vpredicate
p2835
Vhttp://dbpedia.org/ontology/child
p2836
sVobject
p2837
V?child
p2838
sVsubject
p2839
Vhttp://dbpedia.org/resource/Elvis_Presley
p2840
sa(dp2841
Vpredicate
p2842
Vhttp://dbpedia.org/ontology/child
p2843
sVobject
p2844
V?uri
p2845
sVsubject
p2846
V?child
p2847
sasVtype
p2848
Vbgp
p2849
sasVvariables
p2850
(lp2851
V?uri
p2852
asVprefixes
p2853
(dp2854
sVtype
p2855
Vquery
p2856
sVqueryType
p2857
VSELECT
p2858
sa(dp2859
Vdistinct
p2860
I01
sVwhere
p2861
(lp2862
(dp2863
Vtriples
p2864
(lp2865
(dp2866
Vpredicate
p2867
Vhttp://www.w3.org/1999/02/22-rdf-syntax-ns#type
p2868
sVobject
p2869
Vhttp://dbpedia.org/ontology/Film
p2870
sVsubject
p2871
V?uri
p2872
sa(dp2873
Vpredicate
p2874
Vhttp://dbpedia.org/ontology/starring
p2875
sVobject
p2876
Vhttp://dbpedia.org/resource/Mickey_Rourke
p2877
sVsubject
p2878
V?uri
p2879
sa(dp2880
Vpredicate
p2881
Vhttp://dbpedia.org/ontology/director
p2882
sVobject
p2883
Vhttp://dbpedia.org/resource/Guy_Ritchie
p2884
sVsubject
p2885
V?uri
p2886
sasVtype
p2887
Vbgp
p2888
sasVvariables
p2889
(lp2890
V?uri
p2891
asVprefixes
p2892
(dp2893
sVtype
p2894
Vquery
p2895
sVqueryType
p2896
VSELECT
p2897
sa(dp2898
Vdistinct
p2899
I01
sVwhere
p2900
(lp2901
(dp2902
Vtriples
p2903
(lp2904
(dp2905
Vpredicate
p2906
Vhttp://dbpedia.org/ontology/creator
p2907
sVobject
p2908
V?x
p2909
sVsubject
p2910
Vhttp://dbpedia.org/resource/Count_Dracula
p2911
sa(dp2912
Vpredicate
p2913
Vhttp://dbpedia.org/ontology/deathDate
p2914
sVobject
p2915
V?date
p2916
sVsubject
p2917
V?x
p2918
sasVtype
p2919
Vbgp
p2920
sasVvariables
p2921
(lp2922
V?date
p2923
asVprefixes
p2924
(dp2925
sVtype
p2926
Vquery
p2927
sVqueryType
p2928
VSELECT
p2929
sa(dp2930
Vdistinct
p2931
I01
sVwhere
p2932
(lp2933
(dp2934
Vtriples
p2935
(lp2936
(dp2937
Vpredicate
p2938
Vhttp://dbpedia.org/ontology/creator
p2939
sVobject
p2940
V?x
p2941
sVsubject
p2942
Vhttp://dbpedia.org/resource/Miffy
p2943
sa(dp2944
Vpredicate
p2945
Vhttp://dbpedia.org/ontology/nationality
p2946
sVobject
p2947
V?uri
p2948
sVsubject
p2949
V?x
p2950
sasVtype
p2951
Vbgp
p2952
sasVvariables
p2953
(lp2954
V?uri
p2955
asVprefixes
p2956
(dp2957
Vres
p2958
Vhttp://dbpedia.org/resource/
p2959
sVdbo
p2960
Vhttp://dbpedia.org/ontology/
p2961
ssVtype
p2962
Vquery
p2963
sVqueryType
p2964
VSELECT
p2965
sa(dp2966
Vdistinct
p2967
I01
sVwhere
p2968
(lp2969
(dp2970
Vtriples
p2971
(lp2972
(dp2973
Vpredicate
p2974
Vhttp://dbpedia.org/property/alterEgo
p2975
sVobject
p2976
V?s
p2977
sVsubject
p2978
Vhttp://dbpedia.org/resource/Batman
p2979
sasVtype
p2980
Vbgp
p2981
sasVvariables
p2982
(lp2983
V?s
p2984
asVprefixes
p2985
(dp2986
sVtype
p2987
Vquery
p2988
sVqueryType
p2989
VSELECT
p2990
sa(dp2991
Vdistinct
p2992
I01
sVwhere
p2993
(lp2994
(dp2995
Vtriples
p2996
(lp2997
(dp2998
Vpredicate
p2999
Vhttp://dbpedia.org/ontology/governmentType
p3000
sVobject
p3001
V?uri
p3002
sVsubject
p3003
Vhttp://dbpedia.org/resource/Russia
p3004
sasVtype
p3005
Vbgp
p3006
sasVvariables
p3007
(lp3008
V?uri
p3009
asVprefixes
p3010
(dp3011
sVtype
p3012
Vquery
p3013
sVqueryType
p3014
VSELECT
p3015
sa(dp3016
Vprefixes
p3017
(dp3018
sVtype
p3019
Vquery
p3020
sVvariables
p3021
(lp3022
(dp3023
Vvariable
p3024
V?c
p3025
sVexpression
p3026
(dp3027
Vdistinct
p3028
I01
sVtype
p3029
Vaggregate
p3030
sVexpression
p3031
V?uri
p3032
sVaggregation
p3033
Vcount
p3034
ssasVwhere
p3035
(lp3036
(dp3037
Vtriples
p3038
(lp3039
(dp3040
Vpredicate
p3041
Vhttp://dbpedia.org/ontology/foundedBy
p3042
sVobject
p3043
V?uri
p3044
sVsubject
p3045
Vhttp://dbpedia.org/resource/Facebook
p3046
sa(dp3047
Vpredicate
p3048
Vhttp://dbpedia.org/ontology/foundedBy
p3049
sVobject
p3050
V?uri
p3051
sVsubject
p3052
V?uri
p3053
sasVtype
p3054
Vbgp
p3055
sasVqueryType
p3056
VSELECT
p3057
sa(dp3058
Vdistinct
p3059
I01
sVwhere
p3060
(lp3061
(dp3062
Vtriples
p3063
(lp3064
(dp3065
Vpredicate
p3066
Vhttp://www.w3.org/1999/02/22-rdf-syntax-ns#type
p3067
sVobject
p3068
Vhttp://dbpedia.org/ontology/RecordLabel
p3069
sVsubject
p3070
V?uri
p3071
sa(dp3072
Vpredicate
p3073
Vhttp://dbpedia.org/ontology/genre
p3074
sVobject
p3075
Vhttp://dbpedia.org/resource/Grunge
p3076
sVsubject
p3077
V?uri
p3078
sa(dp3079
Vpredicate
p3080
Vhttp://dbpedia.org/ontology/country
p3081
sVobject
p3082
Vhttp://dbpedia.org/resource/Canada
p3083
sVsubject
p3084
V?uri
p3085
sasVtype
p3086
Vbgp
p3087
sasVvariables
p3088
(lp3089
V?uri
p3090
asVprefixes
p3091
(dp3092
Vres
p3093
Vhttp://dbpedia.org/resource/
p3094
sVrdf
p3095
Vhttp://www.w3.org/1999/02/22-rdf-syntax-ns#
p3096
sVdbo
p3097
Vhttp://dbpedia.org/ontology/
p3098
ssVtype
p3099
Vquery
p3100
sVqueryType
p3101
VSELECT
p3102
sa(dp3103
Vprefixes
p3104
(dp3105
sVtype
p3106
Vquery
p3107
sVvariables
p3108
(lp3109
(dp3110
Vvariable
p3111
V?c
p3112
sVexpression
p3113
(dp3114
Vdistinct
p3115
I01
sVtype
p3116
Vaggregate
p3117
sVexpression
p3118
V?uri
p3119
sVaggregation
p3120
Vcount
p3121
ssasVwhere
p3122
(lp3123
(dp3124
Vtriples
p3125
(lp3126
(dp3127
Vpredicate
p3128
Vhttp://dbpedia.org/ontology/child
p3129
sVobject
p3130
V?uri
p3131
sVsubject
p3132
Vhttp://dbpedia.org/resource/Benjamin_Franklin
p3133
sasVtype
p3134
Vbgp
p3135
sasVqueryType
p3136
VSELECT
p3137
sa(dp3138
Vdistinct
p3139
I01
sVwhere
p3140
(lp3141
(dp3142
Vtriples
p3143
(lp3144
(dp3145
Vpredicate
p3146
Vhttp://dbpedia.org/ontology/child
p3147
sVobject
p3148
V?uri
p3149
sVsubject
p3150
Vhttp://dbpedia.org/resource/Margaret_Thatcher
p3151
sasVtype
p3152
Vbgp
p3153
sasVvariables
p3154
(lp3155
V?uri
p3156
asVprefixes
p3157
(dp3158
Vres
p3159
Vhttp://dbpedia.org/resource/
p3160
sVdbo
p3161
Vhttp://dbpedia.org/ontology/
p3162
ssVtype
p3163
Vquery
p3164
sVqueryType
p3165
VSELECT
p3166
sa(dp3167
Vdistinct
p3168
I01
sVwhere
p3169
(lp3170
(dp3171
Vtriples
p3172
(lp3173
(dp3174
Vpredicate
p3175
Vhttp://dbpedia.org/ontology/wineRegion
p3176
sVobject
p3177
V?uri
p3178
sVsubject
p3179
Vhttp://dbpedia.org/resource/Melon_de_Bourgogne
p3180
sasVtype
p3181
Vbgp
p3182
sasVvariables
p3183
(lp3184
V?uri
p3185
asVprefixes
p3186
(dp3187
Vres
p3188
Vhttp://dbpedia.org/resource/
p3189
sVdbo
p3190
Vhttp://dbpedia.org/ontology/
p3191
ssVtype
p3192
Vquery
p3193
sVqueryType
p3194
VSELECT
p3195
sa(dp3196
Vdistinct
p3197
I01
sVtype
p3198
Vquery
p3199
sVvariables
p3200
(lp3201
V?uri
p3202
asVorder
p3203
(lp3204
(dp3205
Vexpression
p3206
V?d
p3207
sasVprefixes
p3208
(dp3209
Vres
p3210
Vhttp://dbpedia.org/resource/
p3211
sVdbo
p3212
Vhttp://dbpedia.org/ontology/
p3213
ssVlimit
p3214
I1
sVoffset
p3215
I0
sVwhere
p3216
(lp3217
(dp3218
Vtriples
p3219
(lp3220
(dp3221
Vpredicate
p3222
Vhttp://dbpedia.org/ontology/child
p3223
sVobject
p3224
V?uri
p3225
sVsubject
p3226
Vhttp://dbpedia.org/resource/Meryl_Streep
p3227
sa(dp3228
Vpredicate
p3229
Vhttp://dbpedia.org/ontology/birthDate
p3230
sVobject
p3231
V?d
p3232
sVsubject
p3233
V?uri
p3234
sasVtype
p3235
Vbgp
p3236
sasVqueryType
p3237
VSELECT
p3238
sa(dp3239
Vprefixes
p3240
(dp3241
Vres
p3242
Vhttp://dbpedia.org/resource/
p3243
sVdbo
p3244
Vhttp://dbpedia.org/ontology/
p3245
ssVtype
p3246
Vquery
p3247
sVwhere
p3248
(lp3249
(dp3250
Vtriples
p3251
(lp3252
(dp3253
Vpredicate
p3254
Vhttp://dbpedia.org/ontology/class
p3255
sVobject
p3256
Vhttp://dbpedia.org/resource/Amphibian
p3257
sVsubject
p3258
Vhttp://dbpedia.org/resource/Hylidae
p3259
sasVtype
p3260
Vbgp
p3261
sasVqueryType
p3262
VASK
p3263
sa(dp3264
Vprefixes
p3265
(dp3266
Vres
p3267
Vhttp://dbpedia.org/resource/
p3268
sVdbo
p3269
Vhttp://dbpedia.org/ontology/
p3270
ssVtype
p3271
Vquery
p3272
sVwhere
p3273
(lp3274
(dp3275
Vtriples
p3276
(lp3277
(dp3278
Vpredicate
p3279
Vhttp://dbpedia.org/ontology/starring
p3280
sVobject
p3281
Vhttp://dbpedia.org/resource/Christian_Bale
p3282
sVsubject
p3283
Vhttp://dbpedia.org/resource/Velvet_Goldmine
p3284
sasVtype
p3285
Vbgp
p3286
sasVqueryType
p3287
VASK
p3288
sa(dp3289
Vdistinct
p3290
I01
sVwhere
p3291
(lp3292
(dp3293
Vtriples
p3294
(lp3295
(dp3296
Vpredicate
p3297
Vhttp://dbpedia.org/ontology/publisher
p3298
sVobject
p3299
Vhttp://dbpedia.org/resource/GMT_Games
p3300
sVsubject
p3301
V?uri
p3302
sasVtype
p3303
Vbgp
p3304
sasVvariables
p3305
(lp3306
V?uri
p3307
asVprefixes
p3308
(dp3309
Vres
p3310
Vhttp://dbpedia.org/resource/
p3311
sVdbo
p3312
Vhttp://dbpedia.org/ontology/
p3313
ssVtype
p3314
Vquery
p3315
sVqueryType
p3316
VSELECT
p3317
sa(dp3318
Vprefixes
p3319
(dp3320
Vres
p3321
Vhttp://dbpedia.org/resource/
p3322
sVrdf
p3323
Vhttp://www.w3.org/1999/02/22-rdf-syntax-ns#
p3324
sVdbo
p3325
Vhttp://dbpedia.org/ontology/
p3326
ssVtype
p3327
Vquery
p3328
sVwhere
p3329
(lp3330
(dp3331
Vtriples
p3332
(lp3333
(dp3334
Vpredicate
p3335
Vhttp://dbpedia.org/ontology/inflow
p3336
sVobject
p3337
Vhttp://dbpedia.org/resource/Isar
p3338
sVsubject
p3339
V?x
p3340
sa(dp3341
Vpredicate
p3342
Vhttp://www.w3.org/1999/02/22-rdf-syntax-ns#type
p3343
sVobject
p3344
Vhttp://dbpedia.org/ontology/Lake
p3345
sVsubject
p3346
V?x
p3347
sasVtype
p3348
Vbgp
p3349
sasVqueryType
p3350
VASK
p3351
sa(dp3352
Vdistinct
p3353
I01
sVwhere
p3354
(lp3355
(dp3356
Vtriples
p3357
(lp3358
(dp3359
Vpredicate
p3360
Vhttp://dbpedia.org/ontology/targetAirport
p3361
sVobject
p3362
V?uri
p3363
sVsubject
p3364
Vhttp://dbpedia.org/resource/Yeti_Airlines
p3365
sasVtype
p3366
Vbgp
p3367
sasVvariables
p3368
(lp3369
V?uri
p3370
asVprefixes
p3371
(dp3372
sVtype
p3373
Vquery
p3374
sVqueryType
p3375
VSELECT
p3376
sa(dp3377
Vdistinct
p3378
I01
sVtype
p3379
Vquery
p3380
sVvariables
p3381
(lp3382
V?uri
p3383
asVorder
p3384
(lp3385
(dp3386
Vdescending
p3387
I01
sVexpression
p3388
V?n
p3389
sasVprefixes
p3390
(dp3391
sVlimit
p3392
I1
sVoffset
p3393
I0
sVwhere
p3394
(lp3395
(dp3396
Vtriples
p3397
(lp3398
(dp3399
Vpredicate
p3400
Vhttp://www.w3.org/1999/02/22-rdf-syntax-ns#type
p3401
sVobject
p3402
Vhttp://dbpedia.org/ontology/Company
p3403
sVsubject
p3404
V?uri
p3405
sa(dp3406
Vpredicate
p3407
Vhttp://dbpedia.org/ontology/location
p3408
sVobject
p3409
Vhttp://dbpedia.org/resource/India
p3410
sVsubject
p3411
V?uri
p3412
sa(dp3413
Vpredicate
p3414
Vhttp://dbpedia.org/ontology/numberOfEmployees
p3415
sVobject
p3416
V?n
p3417
sVsubject
p3418
V?uri
p3419
sasVtype
p3420
Vbgp
p3421
sasVqueryType
p3422
VSELECT
p3423
sa(dp3424
Vdistinct
p3425
I01
sVwhere
p3426
(lp3427
(dp3428
Vtriples
p3429
(lp3430
(dp3431
Vpredicate
p3432
Vhttp://dbpedia.org/ontology/connotation
p3433
sVobject
p3434
Vhttp://dbpedia.org/resource/Loyalty
p3435
sVsubject
p3436
V?uri
p3437
sasVtype
p3438
Vbgp
p3439
sasVvariables
p3440
(lp3441
V?uri
p3442
asVprefixes
p3443
(dp3444
sVtype
p3445
Vquery
p3446
sVqueryType
p3447
VSELECT
p3448
sa(dp3449
Vdistinct
p3450
I01
sVtype
p3451
Vquery
p3452
sVvariables
p3453
(lp3454
V?uri
p3455
asVorder
p3456
(lp3457
(dp3458
Vdescending
p3459
I01
sVexpression
p3460
V?pop
p3461
sasVprefixes
p3462
(dp3463
Vres
p3464
Vhttp://dbpedia.org/resource/
p3465
sVrdf
p3466
Vhttp://www.w3.org/1999/02/22-rdf-syntax-ns#
p3467
sVdbo
p3468
Vhttp://dbpedia.org/ontology/
p3469
ssVlimit
p3470
I1
sVoffset
p3471
I0
sVwhere
p3472
(lp3473
(dp3474
Vtriples
p3475
(lp3476
(dp3477
Vpredicate
p3478
Vhttp://www.w3.org/1999/02/22-rdf-syntax-ns#type
p3479
sVobject
p3480
Vhttp://dbpedia.org/ontology/City
p3481
sVsubject
p3482
V?uri
p3483
sa(dp3484
Vpredicate
p3485
Vhttp://dbpedia.org/ontology/populationTotal
p3486
sVobject
p3487
V?pop
p3488
sVsubject
p3489
V?uri
p3490
sasVtype
p3491
Vbgp
p3492
sasVqueryType
p3493
VSELECT
p3494
sa(dp3495
Vdistinct
p3496
I01
sVwhere
p3497
(lp3498
(dp3499
Vtriples
p3500
(lp3501
(dp3502
Vpredicate
p3503
Vhttp://dbpedia.org/ontology/author
p3504
sVobject
p3505
V?uri
p3506
sVsubject
p3507
Vhttp://dbpedia.org/resource/Wikipedia
p3508
sasVtype
p3509
Vbgp
p3510
sasVvariables
p3511
(lp3512
V?uri
p3513
asVprefixes
p3514
(dp3515
Vres
p3516
Vhttp://dbpedia.org/resource/
p3517
sVdbo
p3518
Vhttp://dbpedia.org/ontology/
p3519
ssVtype
p3520
Vquery
p3521
sVqueryType
p3522
VSELECT
p3523
sa(dp3524
Vprefixes
p3525
(dp3526
Vres
p3527
Vhttp://dbpedia.org/resource/
p3528
sVdbo
p3529
Vhttp://dbpedia.org/ontology/
p3530
ssVtype
p3531
Vquery
p3532
sVwhere
p3533
(lp3534
(dp3535
Vtriples
p3536
(lp3537
(dp3538
Vpredicate
p3539
Vhttp://dbpedia.org/ontology/spouse
p3540
sVobject
p3541
Vhttp://dbpedia.org/resource/Rita_Wilson
p3542
sVsubject
p3543
Vhttp://dbpedia.org/resource/Tom_Hanks
p3544
sasVtype
p3545
Vbgp
p3546
sasVqueryType
p3547
VASK
p3548
sa(dp3549
Vprefixes
p3550
(dp3551
Vres
p3552
Vhttp://dbpedia.org/resource/
p3553
sVdbo
p3554
Vhttp://dbpedia.org/ontology/
p3555
sVrdfs
p3556
Vhttp://www.w3.org/2000/01/rdf-schema#
p3557
ssVtype
p3558
Vquery
p3559
sVwhere
p3560
(lp3561
(dp3562
Vtriples
p3563
(lp3564
(dp3565
Vpredicate
p3566
Vhttp://dbpedia.org/ontology/spouse
p3567
sVobject
p3568
V?spouse
p3569
sVsubject
p3570
Vhttp://dbpedia.org/resource/Barack_Obama
p3571
sa(dp3572
Vpredicate
p3573
Vhttp://www.w3.org/2000/01/rdf-schema#label
p3574
sVobject
p3575
V?name
p3576
sVsubject
p3577
V?spouse
p3578
sasVtype
p3579
Vbgp
p3580
sa(dp3581
Vexpression
p3582
(dp3583
Voperator
p3584
Vregex
p3585
sVargs
p3586
(lp3587
V?name
p3588
aV"Michelle"
p3589
asVtype
p3590
Voperation
p3591
ssVtype
p3592
Vfilter
p3593
sasVqueryType
p3594
VASK
p3595
sa(dp3596
Vprefixes
p3597
(dp3598
sVtype
p3599
Vquery
p3600
sVvariables
p3601
(lp3602
(dp3603
Vvariable
p3604
V?c
p3605
sVexpression
p3606
(dp3607
Vdistinct
p3608
I01
sVtype
p3609
Vaggregate
p3610
sVexpression
p3611
V?uri
p3612
sVaggregation
p3613
Vcount
p3614
ssasVwhere
p3615
(lp3616
(dp3617
Vtriples
p3618
(lp3619
(dp3620
Vpredicate
p3621
Vhttp://dbpedia.org/ontology/ethnicGroup
p3622
sVobject
p3623
V?uri
p3624
sVsubject
p3625
Vhttp://dbpedia.org/resource/Slovenia
p3626
sasVtype
p3627
Vbgp
p3628
sasVqueryType
p3629
VSELECT
p3630
sa(dp3631
Vdistinct
p3632
I01
sVwhere
p3633
(lp3634
(dp3635
Vtriples
p3636
(lp3637
(dp3638
Vpredicate
p3639
Vhttp://dbpedia.org/ontology/leader
p3640
sVobject
p3641
V?uri
p3642
sVsubject
p3643
Vhttp://dbpedia.org/resource/Eritrea
p3644
sa(dp3645
Vpredicate
p3646
Vhttp://dbpedia.org/ontology/leaderTitle
p3647
sVobject
p3648
V"President"@en
p3649
sVsubject
p3650
Vhttp://dbpedia.org/resource/Eritrea
p3651
sasVtype
p3652
Vbgp
p3653
sasVvariables
p3654
(lp3655
V?uri
p3656
asVprefixes
p3657
(dp3658
sVtype
p3659
Vquery
p3660
sVqueryType
p3661
VSELECT
p3662
sa(dp3663
Vdistinct
p3664
I01
sVwhere
p3665
(lp3666
(dp3667
Vtriples
p3668
(lp3669
(dp3670
Vpredicate
p3671
Vhttp://dbpedia.org/ontology/director
p3672
sVobject
p3673
Vhttp://dbpedia.org/resource/Stanley_Kubrick
p3674
sVsubject
p3675
V?uri
p3676
sasVtype
p3677
Vbgp
p3678
sasVvariables
p3679
(lp3680
V?uri
p3681
asVprefixes
p3682
(dp3683
sVtype
p3684
Vquery
p3685
sVqueryType
p3686
VSELECT
p3687
sa(dp3688
Vdistinct
p3689
I01
sVwhere
p3690
(lp3691
(dp3692
Vtriples
p3693
(lp3694
(dp3695
Vpredicate
p3696
Vhttp://dbpedia.org/ontology/completionDate
p3697
sVobject
p3698
V?date
p3699
sVsubject
p3700
Vhttp://dbpedia.org/resource/RMS_Titanic
p3701
sasVtype
p3702
Vbgp
p3703
sasVvariables
p3704
(lp3705
V?date
p3706
asVprefixes
p3707
(dp3708
Vres
p3709
Vhttp://dbpedia.org/resource/
p3710
sVdbo
p3711
Vhttp://dbpedia.org/ontology/
p3712
ssVtype
p3713
Vquery
p3714
sVqueryType
p3715
VSELECT
p3716
sa(dp3717
Vdistinct
p3718
I01
sVwhere
p3719
(lp3720
(dp3721
Vtriples
p3722
(lp3723
(dp3724
Vpredicate
p3725
Vhttp://dbpedia.org/ontology/numberOfPages
p3726
sVobject
p3727
V?n
p3728
sVsubject
p3729
Vhttp://dbpedia.org/resource/War_and_Peace
p3730
sasVtype
p3731
Vbgp
p3732
sasVvariables
p3733
(lp3734
V?n
p3735
asVprefixes
p3736
(dp3737
Vres
p3738
Vhttp://dbpedia.org/resource/
p3739
sVdbo
p3740
Vhttp://dbpedia.org/ontology/
p3741
ssVtype
p3742
Vquery
p3743
sVqueryType
p3744
VSELECT
p3745
sa(dp3746
Vdistinct
p3747
I01
sVtype
p3748
Vquery
p3749
sVvariables
p3750
(lp3751
V?uri
p3752
asVorder
p3753
(lp3754
(dp3755
Vdescending
p3756
I01
sVexpression
p3757
V?y
p3758
sasVprefixes
p3759
(dp3760
Vres
p3761
Vhttp://dbpedia.org/resource/
p3762
sVdbo
p3763
Vhttp://dbpedia.org/ontology/
p3764
ssVlimit
p3765
I1
sVoffset
p3766
I0
sVwhere
p3767
(lp3768
(dp3769
Vtriples
p3770
(lp3771
(dp3772
Vpredicate
p3773
Vhttp://dbpedia.org/ontology/team
p3774
sVobject
p3775
V?x
p3776
sVsubject
p3777
V?uri
p3778
sa(dp3779
Vpredicate
p3780
Vhttp://dbpedia.org/ontology/league
p3781
sVobject
p3782
Vhttp://dbpedia.org/resource/Premier_League
p3783
sVsubject
p3784
V?x
p3785
sa(dp3786
Vpredicate
p3787
Vhttp://dbpedia.org/ontology/birthDate
p3788
sVobject
p3789
V?y
p3790
sVsubject
p3791
V?uri
p3792
sasVtype
p3793
Vbgp
p3794
sasVqueryType
p3795
VSELECT
p3796
sa(dp3797
Vdistinct
p3798
I01
sVtype
p3799
Vquery
p3800
sVvariables
p3801
(lp3802
V?uri
p3803
asVorder
p3804
(lp3805
(dp3806
Vdescending
p3807
I01
sVexpression
p3808
V?num
p3809
sasVprefixes
p3810
(dp3811
Vres
p3812
Vhttp://dbpedia.org/resource/
p3813
sVrdf
p3814
Vhttp://www.w3.org/1999/02/22-rdf-syntax-ns#
p3815
sVdbo
p3816
Vhttp://dbpedia.org/ontology/
p3817
ssVlimit
p3818
I1
sVoffset
p3819
I0
sVwhere
p3820
(lp3821
(dp3822
Vtriples
p3823
(lp3824
(dp3825
Vpredicate
p3826
Vhttp://www.w3.org/1999/02/22-rdf-syntax-ns#type
p3827
sVobject
p3828
Vhttp://dbpedia.org/ontology/Mountain
p3829
sVsubject
p3830
V?uri
p3831
sa(dp3832
Vpredicate
p3833
Vhttp://dbpedia.org/ontology/locatedInArea
p3834
sVobject
p3835
Vhttp://dbpedia.org/resource/Italy
p3836
sVsubject
p3837
V?uri
p3838
sa(dp3839
Vpredicate
p3840
Vhttp://dbpedia.org/ontology/elevation
p3841
sVobject
p3842
V?num
p3843
sVsubject
p3844
V?uri
p3845
sasVtype
p3846
Vbgp
p3847
sasVqueryType
p3848
VSELECT
p3849
sa(dp3850
Vdistinct
p3851
I01
sVwhere
p3852
(lp3853
(dp3854
Vtriples
p3855
(lp3856
(dp3857
Vpredicate
p3858
Vhttp://dbpedia.org/ontology/height
p3859
sVobject
p3860
V?height
p3861
sVsubject
p3862
Vhttp://dbpedia.org/resource/Claudia_Schiffer
p3863
sasVtype
p3864
Vbgp
p3865
sasVvariables
p3866
(lp3867
V?height
p3868
asVprefixes
p3869
(dp3870
Vres
p3871
Vhttp://dbpedia.org/resource/
p3872
sVdbo
p3873
Vhttp://dbpedia.org/ontology/
p3874
ssVtype
p3875
Vquery
p3876
sVqueryType
p3877
VSELECT
p3878
sa(dp3879
Vdistinct
p3880
I01
sVwhere
p3881
(lp3882
(dp3883
Vtriples
p3884
(lp3885
(dp3886
Vpredicate
p3887
Vhttp://dbpedia.org/ontology/vicePresident
p3888
sVobject
p3889
V?uri
p3890
sVsubject
p3891
Vhttp://dbpedia.org/resource/John_F._Kennedy
p3892
sasVtype
p3893
Vbgp
p3894
sasVvariables
p3895
(lp3896
V?uri
p3897
asVprefixes
p3898
(dp3899
Vres
p3900
Vhttp://dbpedia.org/resource/
p3901
sVdbo
p3902
Vhttp://dbpedia.org/ontology/
p3903
ssVtype
p3904
Vquery
p3905
sVqueryType
p3906
VSELECT
p3907
sa(dp3908
Vdistinct
p3909
I01
sVwhere
p3910
(lp3911
(dp3912
Vtriples
p3913
(lp3914
(dp3915
Vpredicate
p3916
Vhttp://dbpedia.org/ontology/subsidiary
p3917
sVobject
p3918
V?uri
p3919
sVsubject
p3920
Vhttp://dbpedia.org/resource/Lufthansa
p3921
sa(dp3922
Vpredicate
p3923
Vhttp://dbpedia.org/ontology/targetAirport
p3924
sVobject
p3925
Vhttp://dbpedia.org/resource/Dortmund_Airport
p3926
sVsubject
p3927
V?uri
p3928
sa(dp3929
Vpredicate
p3930
Vhttp://dbpedia.org/ontology/targetAirport
p3931
sVobject
p3932
Vhttp://dbpedia.org/resource/Berlin_Tegel_Airport
p3933
sVsubject
p3934
V?uri
p3935
sasVtype
p3936
Vbgp
p3937
sasVvariables
p3938
(lp3939
V?uri
p3940
asVprefixes
p3941
(dp3942
Vres
p3943
Vhttp://dbpedia.org/resource/
p3944
sVdbo
p3945
Vhttp://dbpedia.org/ontology/
p3946
ssVtype
p3947
Vquery
p3948
sVqueryType
p3949
VSELECT
p3950
sa(dp3951
Vdistinct
p3952
I01
sVwhere
p3953
(lp3954
(dp3955
Vtriples
p3956
(lp3957
(dp3958
Vpredicate
p3959
Vhttp://dbpedia.org/ontology/successor
p3960
sVobject
p3961
V?uri
p3962
sVsubject
p3963
Vhttp://dbpedia.org/resource/John_F._Kennedy
p3964
sasVtype
p3965
Vbgp
p3966
sasVvariables
p3967
(lp3968
V?uri
p3969
asVprefixes
p3970
(dp3971
Vres
p3972
Vhttp://dbpedia.org/resource/
p3973
sVdbo
p3974
Vhttp://dbpedia.org/ontology/
p3975
ssVtype
p3976
Vquery
p3977
sVqueryType
p3978
VSELECT
p3979
sa(dp3980
Vdistinct
p3981
I01
sVwhere
p3982
(lp3983
(dp3984
Vtriples
p3985
(lp3986
(dp3987
Vpredicate
p3988
Vhttp://dbpedia.org/ontology/musicComposer
p3989
sVobject
p3990
V?uri
p3991
sVsubject
p3992
Vhttp://dbpedia.org/resource/Titanic_(1997_film)
p3993
sasVtype
p3994
Vbgp
p3995
sasVvariables
p3996
(lp3997
V?uri
p3998
asVprefixes
p3999
(dp4000
sVtype
p4001
Vquery
p4002
sVqueryType
p4003
VSELECT
p4004
sa(dp4005
Vdistinct
p4006
I01
sVwhere
p4007
(lp4008
(dp4009
Vtriples
p4010
(lp4011
(dp4012
Vpredicate
p4013
Vhttp://www.w3.org/1999/02/22-rdf-syntax-ns#type
p4014
sVobject
p4015
Vhttp://dbpedia.org/ontology/Film
p4016
sVsubject
p4017
V?uri
p4018
sa(dp4019
Vpredicate
p4020
Vhttp://dbpedia.org/ontology/director
p4021
sVobject
p4022
Vhttp://dbpedia.org/resource/Akira_Kurosawa
p4023
sVsubject
p4024
V?uri
p4025
sasVtype
p4026
Vbgp
p4027
sasVvariables
p4028
(lp4029
V?uri
p4030
asVprefixes
p4031
(dp4032
Vres
p4033
Vhttp://dbpedia.org/resource/
p4034
sVrdf
p4035
Vhttp://www.w3.org/1999/02/22-rdf-syntax-ns#
p4036
sVdbo
p4037
Vhttp://dbpedia.org/ontology/
p4038
ssVtype
p4039
Vquery
p4040
sVqueryType
p4041
VSELECT
p4042
sa(dp4043
Vdistinct
p4044
I01
sVtype
p4045
Vquery
p4046
sVvariables
p4047
(lp4048
V?uri
p4049
asVorder
p4050
(lp4051
(dp4052
Vexpression
p4053
V?y
p4054
sasVprefixes
p4055
(dp4056
Vres
p4057
Vhttp://dbpedia.org/resource/
p4058
sVrdf
p4059
Vhttp://www.w3.org/1999/02/22-rdf-syntax-ns#
p4060
sVdbo
p4061
Vhttp://dbpedia.org/ontology/
p4062
ssVlimit
p4063
I1
sVoffset
p4064
I0
sVwhere
p4065
(lp4066
(dp4067
Vtriples
p4068
(lp4069
(dp4070
Vpredicate
p4071
Vhttp://www.w3.org/1999/02/22-rdf-syntax-ns#type
p4072
sVobject
p4073
Vhttp://dbpedia.org/ontology/Album
p4074
sVsubject
p4075
V?x
p4076
sa(dp4077
Vpredicate
p4078
Vhttp://dbpedia.org/ontology/artist
p4079
sVobject
p4080
Vhttp://dbpedia.org/resource/Elvis_Presley
p4081
sVsubject
p4082
V?x
p4083
sa(dp4084
Vpredicate
p4085
Vhttp://dbpedia.org/ontology/releaseDate
p4086
sVobject
p4087
V?y
p4088
sVsubject
p4089
V?x
p4090
sa(dp4091
Vpredicate
p4092
Vhttp://dbpedia.org/ontology/recordLabel
p4093
sVobject
p4094
V?uri
p4095
sVsubject
p4096
V?x
p4097
sasVtype
p4098
Vbgp
p4099
sasVqueryType
p4100
VSELECT
p4101
sa(dp4102
Vdistinct
p4103
I01
sVwhere
p4104
(lp4105
(dp4106
Vtriples
p4107
(lp4108
(dp4109
Vpredicate
p4110
Vhttp://dbpedia.org/ontology/timeZone
p4111
sVobject
p4112
V?uri
p4113
sVsubject
p4114
Vhttp://dbpedia.org/resource/Rome
p4115
sasVtype
p4116
Vbgp
p4117
sasVvariables
p4118
(lp4119
V?uri
p4120
asVprefixes
p4121
(dp4122
sVtype
p4123
Vquery
p4124
sVqueryType
p4125
VSELECT
p4126
sa(dp4127
Vdistinct
p4128
I01
sVwhere
p4129
(lp4130
(dp4131
Vtriples
p4132
(lp4133
(dp4134
Vpredicate
p4135
Vhttp://dbpedia.org/ontology/currency
p4136
sVobject
p4137
V?uri
p4138
sVsubject
p4139
Vhttp://dbpedia.org/resource/China
p4140
sasVtype
p4141
Vbgp
p4142
sasVvariables
p4143
(lp4144
V?uri
p4145
asVprefixes
p4146
(dp4147
Vres
p4148
Vhttp://dbpedia.org/resource/
p4149
sVdbo
p4150
Vhttp://dbpedia.org/ontology/
p4151
ssVtype
p4152
Vquery
p4153
sVqueryType
p4154
VSELECT
p4155
sa(dp4156
Vdistinct
p4157
I01
sVwhere
p4158
(lp4159
(dp4160
Vtriples
p4161
(lp4162
(dp4163
Vpredicate
p4164
Vhttp://dbpedia.org/ontology/developer
p4165
sVobject
p4166
V?uri
p4167
sVsubject
p4168
Vhttp://dbpedia.org/resource/DBpedia
p4169
sasVtype
p4170
Vbgp
p4171
sasVvariables
p4172
(lp4173
V?uri
p4174
asVprefixes
p4175
(dp4176
sVtype
p4177
Vquery
p4178
sVqueryType
p4179
VSELECT
p4180
sa(dp4181
Vprefixes
p4182
(dp4183
Vres
p4184
Vhttp://dbpedia.org/resource/
p4185
sVdbo
p4186
Vhttp://dbpedia.org/ontology/
p4187
ssVtype
p4188
Vquery
p4189
sVwhere
p4190
(lp4191
(dp4192
Vtriples
p4193
(lp4194
(dp4195
Vpredicate
p4196
Vhttp://dbpedia.org/ontology/deathPlace
p4197
sVobject
p4198
V?p
p4199
sVsubject
p4200
Vhttp://dbpedia.org/resource/Abraham_Lincoln
p4201
sa(dp4202
Vpredicate
p4203
Vhttp://dbpedia.org/ontology/website
p4204
sVobject
p4205
V?w
p4206
sVsubject
p4207
V?p
p4208
sasVtype
p4209
Vbgp
p4210
sasVqueryType
p4211
VASK
p4212
sa(dp4213
Vdistinct
p4214
I01
sVwhere
p4215
(lp4216
(dp4217
Vtriples
p4218
(lp4219
(dp4220
Vpredicate
p4221
Vhttp://dbpedia.org/ontology/leader
p4222
sVobject
p4223
V?uri
p4224
sVsubject
p4225
Vhttp://dbpedia.org/resource/Netherlands
p4226
sa(dp4227
Vpredicate
p4228
Vhttp://www.w3.org/1999/02/22-rdf-syntax-ns#type
p4229
sVobject
p4230
Vhttp://dbpedia.org/ontology/Royalty
p4231
sVsubject
p4232
V?uri
p4233
sasVtype
p4234
Vbgp
p4235
sasVvariables
p4236
(lp4237
V?uri
p4238
asVprefixes
p4239
(dp4240
sVtype
p4241
Vquery
p4242
sVqueryType
p4243
VSELECT
p4244
sa(dp4245
Vdistinct
p4246
I01
sVwhere
p4247
(lp4248
(dp4249
Vtriples
p4250
(lp4251
(dp4252
Vpredicate
p4253
Vhttp://dbpedia.org/ontology/deathPlace
p4254
sVobject
p4255
V?uri
p4256
sVsubject
p4257
Vhttp://dbpedia.org/resource/Nikos_Kazantzakis
p4258
sa(dp4259
Vpredicate
p4260
Vhttp://www.w3.org/1999/02/22-rdf-syntax-ns#type
p4261
sVobject
p4262
Vhttp://dbpedia.org/ontology/Town
p4263
sVsubject
p4264
V?uri
p4265
sasVtype
p4266
Vbgp
p4267
sasVvariables
p4268
(lp4269
V?uri
p4270
asVprefixes
p4271
(dp4272
sVtype
p4273
Vquery
p4274
sVqueryType
p4275
VSELECT
p4276
sa(dp4277
Vdistinct
p4278
I01
sVwhere
p4279
(lp4280
(dp4281
Vtriples
p4282
(lp4283
(dp4284
Vpredicate
p4285
Vhttp://dbpedia.org/property/father
p4286
sVobject
p4287
V?uri
p4288
sVsubject
p4289
Vhttp://dbpedia.org/resource/Elizabeth_II
p4290
sasVtype
p4291
Vbgp
p4292
sasVvariables
p4293
(lp4294
V?uri
p4295
asVprefixes
p4296
(dp4297
Vres
p4298
Vhttp://dbpedia.org/resource/
p4299
sVdbp
p4300
Vhttp://dbpedia.org/property/
p4301
ssVtype
p4302
Vquery
p4303
sVqueryType
p4304
VSELECT
p4305
sa(dp4306
Vdistinct
p4307
I01
sVwhere
p4308
(lp4309
(dp4310
Vtriples
p4311
(lp4312
(dp4313
Vpredicate
p4314
Vhttp://www.w3.org/1999/02/22-rdf-syntax-ns#type
p4315
sVobject
p4316
Vhttp://dbpedia.org/ontology/Bird
p4317
sVsubject
p4318
V?uri
p4319
sasVtype
p4320
Vbgp
p4321
sa(dp4322
Vpatterns
p4323
(lp4324
(dp4325
Vtriples
p4326
(lp4327
(dp4328
Vpredicate
p4329
Vhttp://dbpedia.org/ontology/conservationStatus
p4330
sVobject
p4331
V"CR"^^http://www.w3.org/2001/XMLSchema#string
p4332
sVsubject
p4333
V?uri
p4334
sasVtype
p4335
Vbgp
p4336
sa(dp4337
Vtriples
p4338
(lp4339
(dp4340
Vpredicate
p4341
Vhttp://purl.org/dc/terms/subject
p4342
sVobject
p4343
Vhttp://dbpedia.org/resource/Category:Critically_endangered_animals
p4344
sVsubject
p4345
V?uri
p4346
sasVtype
p4347
Vbgp
p4348
sasVtype
p4349
Vunion
p4350
sasVvariables
p4351
(lp4352
V?uri
p4353
aV?p
p4354
asVprefixes
p4355
(dp4356
sVtype
p4357
Vquery
p4358
sVqueryType
p4359
VSELECT
p4360
sa(dp4361
Vdistinct
p4362
I01
sVwhere
p4363
(lp4364
(dp4365
Vtriples
p4366
(lp4367
(dp4368
Vpredicate
p4369
Vhttp://dbpedia.org/ontology/largestCity
p4370
sVobject
p4371
V?city
p4372
sVsubject
p4373
Vhttp://dbpedia.org/resource/Canada
p4374
sa(dp4375
Vpredicate
p4376
Vhttp://dbpedia.org/ontology/populationTotal
p4377
sVobject
p4378
V?num
p4379
sVsubject
p4380
V?city
p4381
sasVtype
p4382
Vbgp
p4383
sasVvariables
p4384
(lp4385
V?num
p4386
asVprefixes
p4387
(dp4388
Vres
p4389
Vhttp://dbpedia.org/resource/
p4390
sVdbo
p4391
Vhttp://dbpedia.org/ontology/
p4392
ssVtype
p4393
Vquery
p4394
sVqueryType
p4395
VSELECT
p4396
sa(dp4397
Vdistinct
p4398
I01
sVwhere
p4399
(lp4400
(dp4401
Vtriples
p4402
(lp4403
(dp4404
Vpredicate
p4405
Vhttp://dbpedia.org/ontology/battle
p4406
sVobject
p4407
V?uri
p4408
sVsubject
p4409
Vhttp://dbpedia.org/resource/T._E._Lawrence
p4410
sasVtype
p4411
Vbgp
p4412
sasVvariables
p4413
(lp4414
V?uri
p4415
asVprefixes
p4416
(dp4417
Vres
p4418
Vhttp://dbpedia.org/resource/
p4419
sVdbo
p4420
Vhttp://dbpedia.org/ontology/
p4421
ssVtype
p4422
Vquery
p4423
sVqueryType
p4424
VSELECT
p4425
sa(dp4426
Vdistinct
p4427
I01
sVtype
p4428
Vquery
p4429
sVvariables
p4430
(lp4431
V?uri
p4432
asVorder
p4433
(lp4434
(dp4435
Vdescending
p4436
I01
sVexpression
p4437
V?n
p4438
sasVprefixes
p4439
(dp4440
Vrdf
p4441
Vhttp://www.w3.org/1999/02/22-rdf-syntax-ns#
p4442
sVdbo
p4443
Vhttp://dbpedia.org/ontology/
p4444
ssVlimit
p4445
I1
sVoffset
p4446
I0
sVwhere
p4447
(lp4448
(dp4449
Vtriples
p4450
(lp4451
(dp4452
Vpredicate
p4453
Vhttp://www.w3.org/1999/02/22-rdf-syntax-ns#type
p4454
sVobject
p4455
Vhttp://dbpedia.org/ontology/Book
p4456
sVsubject
p4457
V?uri
p4458
sa(dp4459
Vpredicate
p4460
Vhttp://dbpedia.org/ontology/numberOfPages
p4461
sVobject
p4462
V?n
p4463
sVsubject
p4464
V?uri
p4465
sasVtype
p4466
Vbgp
p4467
sasVqueryType
p4468
VSELECT
p4469
sa(dp4470
Vdistinct
p4471
I01
sVwhere
p4472
(lp4473
(dp4474
Vtriples
p4475
(lp4476
(dp4477
Vpredicate
p4478
Vhttp://dbpedia.org/ontology/sourceCountry
p4479
sVobject
p4480
V?uri
p4481
sVsubject
p4482
Vhttp://dbpedia.org/resource/Nile
p4483
sasVtype
p4484
Vbgp
p4485
sasVvariables
p4486
(lp4487
V?uri
p4488
asVprefixes
p4489
(dp4490
Vres
p4491
Vhttp://dbpedia.org/resource/
p4492
sVdbo
p4493
Vhttp://dbpedia.org/ontology/
p4494
ssVtype
p4495
Vquery
p4496
sVqueryType
p4497
VSELECT
p4498
sa(dp4499
Vdistinct
p4500
I01
sVtype
p4501
Vquery
p4502
sVvariables
p4503
(lp4504
V?uri
p4505
asVorder
p4506
(lp4507
(dp4508
Vdescending
p4509
I01
sVexpression
p4510
V?x
p4511
sasVprefixes
p4512
(dp4513
sVlimit
p4514
I1
sVoffset
p4515
I0
sVwhere
p4516
(lp4517
(dp4518
Vtriples
p4519
(lp4520
(dp4521
Vpredicate
p4522
Vhttp://www.w3.org/1999/02/22-rdf-syntax-ns#type
p4523
sVobject
p4524
Vhttp://dbpedia.org/ontology/FormulaOneRacer
p4525
sVsubject
p4526
V?uri
p4527
sa(dp4528
Vpredicate
p4529
Vhttp://dbpedia.org/ontology/races
p4530
sVobject
p4531
V?x
p4532
sVsubject
p4533
V?uri
p4534
sasVtype
p4535
Vbgp
p4536
sasVqueryType
p4537
VSELECT
p4538
sa(dp4539
Vdistinct
p4540
I01
sVwhere
p4541
(lp4542
(dp4543
Vtriples
p4544
(lp4545
(dp4546
Vpredicate
p4547
Vhttp://www.w3.org/1999/02/22-rdf-syntax-ns#type
p4548
sVobject
p4549
Vhttp://dbpedia.org/ontology/Company
p4550
sVsubject
p4551
V?uri
p4552
sa(dp4553
Vpredicate
p4554
Vhttp://dbpedia.org/ontology/product
p4555
sVobject
p4556
Vhttp://dbpedia.org/resource/Hovercraft
p4557
sVsubject
p4558
V?uri
p4559
sasVtype
p4560
Vbgp
p4561
sasVvariables
p4562
(lp4563
V?uri
p4564
asVprefixes
p4565
(dp4566
sVtype
p4567
Vquery
p4568
sVqueryType
p4569
VSELECT
p4570
sa(dp4571
Vprefixes
p4572
(dp4573
sVtype
p4574
Vquery
p4575
sVwhere
p4576
(lp4577
(dp4578
Vtriples
p4579
(lp4580
(dp4581
Vpredicate
p4582
Vhttp://dbpedia.org/ontology/child
p4583
sVobject
p4584
V?uri
p4585
sVsubject
p4586
Vhttp://dbpedia.org/resource/Elvis_Presley
p4587
sasVtype
p4588
Vbgp
p4589
sasVqueryType
p4590
VASK
p4591
sa(dp4592
Vdistinct
p4593
I01
sVwhere
p4594
(lp4595
(dp4596
Vtriples
p4597
(lp4598
(dp4599
Vpredicate
p4600
Vhttp://dbpedia.org/property/office
p4601
sVobject
p4602
Vhttp://dbpedia.org/resource/President_of_Montenegro
p4603
sVsubject
p4604
V?x
p4605
sa(dp4606
Vpredicate
p4607
Vhttp://dbpedia.org/ontology/birthPlace
p4608
sVobject
p4609
V?uri
p4610
sVsubject
p4611
V?x
p4612
sa(dp4613
Vpredicate
p4614
Vhttp://www.w3.org/1999/02/22-rdf-syntax-ns#type
p4615
sVobject
p4616
Vhttp://dbpedia.org/ontology/City
p4617
sVsubject
p4618
V?uri
p4619
sasVtype
p4620
Vbgp
p4621
sasVvariables
p4622
(lp4623
V?uri
p4624
asVprefixes
p4625
(dp4626
sVtype
p4627
Vquery
p4628
sVqueryType
p4629
VSELECT
p4630
sa(dp4631
Vdistinct
p4632
I01
sVwhere
p4633
(lp4634
(dp4635
Vtriples
p4636
(lp4637
(dp4638
Vpredicate
p4639
Vhttp://dbpedia.org/ontology/birthPlace
p4640
sVobject
p4641
V?x
p4642
sVsubject
p4643
Vhttp://dbpedia.org/resource/Bill_Gates
p4644
sa(dp4645
Vpredicate
p4646
Vhttp://dbpedia.org/ontology/country
p4647
sVobject
p4648
V?uri
p4649
sVsubject
p4650
V?x
p4651
sasVtype
p4652
Vbgp
p4653
sasVvariables
p4654
(lp4655
V?uri
p4656
asVprefixes
p4657
(dp4658
sVtype
p4659
Vquery
p4660
sVqueryType
p4661
VSELECT
p4662
sa(dp4663
Vdistinct
p4664
I01
sVwhere
p4665
(lp4666
(dp4667
Vtriples
p4668
(lp4669
(dp4670
Vpredicate
p4671
Vhttp://www.w3.org/1999/02/22-rdf-syntax-ns#type
p4672
sVobject
p4673
Vhttp://dbpedia.org/ontology/Country
p4674
sVsubject
p4675
V?uri
p4676
sa(dp4677
Vpredicate
p4678
Vhttp://dbpedia.org/ontology/language
p4679
sVobject
p4680
Vhttp://dbpedia.org/resource/Japanese_language
p4681
sVsubject
p4682
V?uri
p4683
sasVtype
p4684
Vbgp
p4685
sasVvariables
p4686
(lp4687
V?uri
p4688
asVprefixes
p4689
(dp4690
sVtype
p4691
Vquery
p4692
sVqueryType
p4693
VSELECT
p4694
sa(dp4695
Vdistinct
p4696
I01
sVwhere
p4697
(lp4698
(dp4699
Vtriples
p4700
(lp4701
(dp4702
Vpredicate
p4703
Vhttp://www.w3.org/1999/02/22-rdf-syntax-ns#type
p4704
sVobject
p4705
Vhttp://dbpedia.org/ontology/Book
p4706
sVsubject
p4707
V?uri
p4708
sa(dp4709
Vpredicate
p4710
Vhttp://dbpedia.org/ontology/author
p4711
sVobject
p4712
Vhttp://dbpedia.org/resource/Muhammad_Ali
p4713
sVsubject
p4714
V?uri
p4715
sasVtype
p4716
Vbgp
p4717
sasVvariables
p4718
(lp4719
V?uri
p4720
asVprefixes
p4721
(dp4722
Vres
p4723
Vhttp://dbpedia.org/resource/
p4724
sVrdf
p4725
Vhttp://www.w3.org/1999/02/22-rdf-syntax-ns#
p4726
sVdbo
p4727
Vhttp://dbpedia.org/ontology/
p4728
ssVtype
p4729
Vquery
p4730
sVqueryType
p4731
VSELECT
p4732
sa(dp4733
Vprefixes
p4734
(dp4735
Vres
p4736
Vhttp://dbpedia.org/resource/
p4737
sVdbo
p4738
Vhttp://dbpedia.org/ontology/
p4739
ssVtype
p4740
Vquery
p4741
sVwhere
p4742
(lp4743
(dp4744
Vtriples
p4745
(lp4746
(dp4747
Vpredicate
p4748
Vhttp://dbpedia.org/ontology/spouse
p4749
sVobject
p4750
Vhttp://dbpedia.org/resource/Michelle_Obama
p4751
sVsubject
p4752
Vhttp://dbpedia.org/resource/Barack_Obama
p4753
sasVtype
p4754
Vbgp
p4755
sasVqueryType
p4756
VASK
p4757
sa(dp4758
Vdistinct
p4759
I01
sVwhere
p4760
(lp4761
(dp4762
Vtriples
p4763
(lp4764
(dp4765
Vpredicate
p4766
Vhttp://dbpedia.org/ontology/areaCode
p4767
sVobject
p4768
V?string
p4769
sVsubject
p4770
Vhttp://dbpedia.org/resource/Berlin
p4771
sasVtype
p4772
Vbgp
p4773
sasVvariables
p4774
(lp4775
V?string
p4776
asVprefixes
p4777
(dp4778
Vres
p4779
Vhttp://dbpedia.org/resource/
p4780
sVdbo
p4781
Vhttp://dbpedia.org/ontology/
p4782
ssVtype
p4783
Vquery
p4784
sVqueryType
p4785
VSELECT
p4786
sa(dp4787
Vdistinct
p4788
I01
sVwhere
p4789
(lp4790
(dp4791
Vtriples
p4792
(lp4793
(dp4794
Vpredicate
p4795
Vhttp://dbpedia.org/ontology/starring
p4796
sVobject
p4797
V?uri
p4798
sVsubject
p4799
Vhttp://dbpedia.org/resource/Last_Action_Hero
p4800
sasVtype
p4801
Vbgp
p4802
sasVvariables
p4803
(lp4804
V?uri
p4805
asVprefixes
p4806
(dp4807
Vres
p4808
Vhttp://dbpedia.org/resource/
p4809
sVdbo
p4810
Vhttp://dbpedia.org/ontology/
p4811
ssVtype
p4812
Vquery
p4813
sVqueryType
p4814
VSELECT
p4815
sa(dp4816
Vdistinct
p4817
I01
sVwhere
p4818
(lp4819
(dp4820
Vtriples
p4821
(lp4822
(dp4823
Vpredicate
p4824
Vhttp://dbpedia.org/property/nickname
p4825
sVobject
p4826
V?string
p4827
sVsubject
p4828
Vhttp://dbpedia.org/resource/San_Francisco
p4829
sasVtype
p4830
Vbgp
p4831
sasVvariables
p4832
(lp4833
V?string
p4834
asVprefixes
p4835
(dp4836
sVtype
p4837
Vquery
p4838
sVqueryType
p4839
VSELECT
p4840
sa(dp4841
Vdistinct
p4842
I01
sVtype
p4843
Vquery
p4844
sVvariables
p4845
(lp4846
V?uri
p4847
asVorder
p4848
(lp4849
(dp4850
Vexpression
p4851
V?d
p4852
sasVprefixes
p4853
(dp4854
sVlimit
p4855
I1
sVoffset
p4856
I0
sVwhere
p4857
(lp4858
(dp4859
Vtriples
p4860
(lp4861
(dp4862
Vpredicate
p4863
Vhttp://www.w3.org/1999/02/22-rdf-syntax-ns#type
p4864
sVobject
p4865
Vhttp://dbpedia.org/ontology/Album
p4866
sVsubject
p4867
V?uri
p4868
sa(dp4869
Vpredicate
p4870
Vhttp://dbpedia.org/ontology/artist
p4871
sVobject
p4872
Vhttp://dbpedia.org/resource/Queen_(band)
p4873
sVsubject
p4874
V?uri
p4875
sa(dp4876
Vpredicate
p4877
Vhttp://dbpedia.org/ontology/releaseDate
p4878
sVobject
p4879
V?d
p4880
sVsubject
p4881
V?uri
p4882
sasVtype
p4883
Vbgp
p4884
sasVqueryType
p4885
VSELECT
p4886
sa(dp4887
Vdistinct
p4888
I01
sVwhere
p4889
(lp4890
(dp4891
Vtriples
p4892
(lp4893
(dp4894
Vpredicate
p4895
Vhttp://dbpedia.org/property/country
p4896
sVobject
p4897
V?uri
p4898
sVsubject
p4899
Vhttp://dbpedia.org/resource/Yenisei_River
p4900
sasVtype
p4901
Vbgp
p4902
sasVvariables
p4903
(lp4904
V?uri
p4905
asVprefixes
p4906
(dp4907
Vres
p4908
Vhttp://dbpedia.org/resource/
p4909
sVdbp
p4910
Vhttp://dbpedia.org/property/
p4911
ssVtype
p4912
Vquery
p4913
sVqueryType
p4914
VSELECT
p4915
sa(dp4916
Vdistinct
p4917
I01
sVwhere
p4918
(lp4919
(dp4920
Vtriples
p4921
(lp4922
(dp4923
Vpredicate
p4924
Vhttp://www.w3.org/1999/02/22-rdf-syntax-ns#type
p4925
sVobject
p4926
Vhttp://dbpedia.org/ontology/TelevisionShow
p4927
sVsubject
p4928
V?uri
p4929
sa(dp4930
Vpredicate
p4931
Vhttp://dbpedia.org/ontology/creator
p4932
sVobject
p4933
Vhttp://dbpedia.org/resource/Walt_Disney
p4934
sVsubject
p4935
V?uri
p4936
sasVtype
p4937
Vbgp
p4938
sasVvariables
p4939
(lp4940
V?uri
p4941
asVprefixes
p4942
(dp4943
Vres
p4944
Vhttp://dbpedia.org/resource/
p4945
sVrdf
p4946
Vhttp://www.w3.org/1999/02/22-rdf-syntax-ns#
p4947
sVdbo
p4948
Vhttp://dbpedia.org/ontology/
p4949
ssVtype
p4950
Vquery
p4951
sVqueryType
p4952
VSELECT
p4953
sa(dp4954
Vdistinct
p4955
I01
sVtype
p4956
Vquery
p4957
sVvariables
p4958
(lp4959
V?uri
p4960
asVorder
p4961
(lp4962
(dp4963
Vdescending
p4964
I01
sVexpression
p4965
V?s
p4966
sasVprefixes
p4967
(dp4968
Vres
p4969
Vhttp://dbpedia.org/resource/
p4970
sVrdf
p4971
Vhttp://www.w3.org/1999/02/22-rdf-syntax-ns#
p4972
sVdbo
p4973
Vhttp://dbpedia.org/ontology/
p4974
ssVlimit
p4975
I1
sVoffset
p4976
I0
sVwhere
p4977
(lp4978
(dp4979
Vtriples
p4980
(lp4981
(dp4982
Vpredicate
p4983
Vhttp://www.w3.org/1999/02/22-rdf-syntax-ns#type
p4984
sVobject
p4985
Vhttp://dbpedia.org/ontology/Bridge
p4986
sVsubject
p4987
V?uri
p4988
sa(dp4989
Vpredicate
p4990
Vhttp://dbpedia.org/ontology/mainspan
p4991
sVobject
p4992
V?s
p4993
sVsubject
p4994
V?uri
p4995
sasVtype
p4996
Vbgp
p4997
sasVqueryType
p4998
VSELECT
p4999
sa(dp5000
Vdistinct
p5001
I01
sVwhere
p5002
(lp5003
(dp5004
Vtriples
p5005
(lp5006
(dp5007
Vpredicate
p5008
Vhttp://dbpedia.org/ontology/foundationPlace
p5009
sVobject
p5010
V?uri
p5011
sVsubject
p5012
Vhttp://dbpedia.org/resource/Sitecore
p5013
sasVtype
p5014
Vbgp
p5015
sasVvariables
p5016
(lp5017
V?uri
p5018
asVprefixes
p5019
(dp5020
sVtype
p5021
Vquery
p5022
sVqueryType
p5023
VSELECT
p5024
sa(dp5025
Vdistinct
p5026
I01
sVwhere
p5027
(lp5028
(dp5029
Vtriples
p5030
(lp5031
(dp5032
Vpredicate
p5033
Vhttp://dbpedia.org/ontology/spouse
p5034
sVobject
p5035
Vhttp://dbpedia.org/resource/Lance_Bass
p5036
sVsubject
p5037
V?uri
p5038
sasVtype
p5039
Vbgp
p5040
sasVvariables
p5041
(lp5042
V?uri
p5043
asVprefixes
p5044
(dp5045
sVtype
p5046
Vquery
p5047
sVqueryType
p5048
VSELECT
p5049
sa(dp5050
Vdistinct
p5051
I01
sVwhere
p5052
(lp5053
(dp5054
Vtriples
p5055
(lp5056
(dp5057
Vpredicate
p5058
Vhttp://dbpedia.org/ontology/capital
p5059
sVobject
p5060
V?uri
p5061
sVsubject
p5062
Vhttp://dbpedia.org/resource/Canada
p5063
sasVtype
p5064
Vbgp
p5065
sasVvariables
p5066
(lp5067
V?uri
p5068
asVprefixes
p5069
(dp5070
Vres
p5071
Vhttp://dbpedia.org/resource/
p5072
sVdbo
p5073
Vhttp://dbpedia.org/ontology/
p5074
ssVtype
p5075
Vquery
p5076
sVqueryType
p5077
VSELECT
p5078
sa(dp5079
Vdistinct
p5080
I01
sVwhere
p5081
(lp5082
(dp5083
Vtriples
p5084
(lp5085
(dp5086
Vpredicate
p5087
Vhttp://dbpedia.org/ontology/influenced
p5088
sVobject
p5089
Vhttp://dbpedia.org/resource/Vincent_van_Gogh
p5090
sVsubject
p5091
V?uri
p5092
sasVtype
p5093
Vbgp
p5094
sasVvariables
p5095
(lp5096
V?uri
p5097
asVprefixes
p5098
(dp5099
sVtype
p5100
Vquery
p5101
sVqueryType
p5102
VSELECT
p5103
sa(dp5104
Vdistinct
p5105
I01
sVwhere
p5106
(lp5107
(dp5108
Vtriples
p5109
(lp5110
(dp5111
Vpredicate
p5112
Vhttp://dbpedia.org/ontology/deathPlace
p5113
sVobject
p5114
V?uri
p5115
sVsubject
p5116
Vhttp://dbpedia.org/resource/John_F._Kennedy
p5117
sa(dp5118
Vpredicate
p5119
Vhttp://www.w3.org/1999/02/22-rdf-syntax-ns#type
p5120
sVobject
p5121
Vhttp://dbpedia.org/ontology/City
p5122
sVsubject
p5123
V?uri
p5124
sasVtype
p5125
Vbgp
p5126
sasVvariables
p5127
(lp5128
V?uri
p5129
asVprefixes
p5130
(dp5131
Vres
p5132
Vhttp://dbpedia.org/resource/
p5133
sVrdf
p5134
Vhttp://www.w3.org/1999/02/22-rdf-syntax-ns#
p5135
sVdbo
p5136
Vhttp://dbpedia.org/ontology/
p5137
ssVtype
p5138
Vquery
p5139
sVqueryType
p5140
VSELECT
p5141
sa(dp5142
Vprefixes
p5143
(dp5144
Vres
p5145
Vhttp://dbpedia.org/resource/
p5146
sVdbo
p5147
Vhttp://dbpedia.org/ontology/
p5148
ssVtype
p5149
Vquery
p5150
sVwhere
p5151
(lp5152
(dp5153
Vtriples
p5154
(lp5155
(dp5156
Vpredicate
p5157
Vhttp://dbpedia.org/ontology/battle
p5158
sVobject
p5159
V?battle
p5160
sVsubject
p5161
Vhttp://dbpedia.org/resource/Andrew_Jackson
p5162
sasVtype
p5163
Vbgp
p5164
sasVqueryType
p5165
VASK
p5166
sa(dp5167
Vdistinct
p5168
I01
sVwhere
p5169
(lp5170
(dp5171
Vtriples
p5172
(lp5173
(dp5174
Vpredicate
p5175
Vhttp://dbpedia.org/ontology/composer
p5176
sVobject
p5177
V?uri
p5178
sVsubject
p5179
Vhttp://dbpedia.org/resource/Game_of_Thrones
p5180
sasVtype
p5181
Vbgp
p5182
sasVvariables
p5183
(lp5184
V?uri
p5185
asVprefixes
p5186
(dp5187
sVtype
p5188
Vquery
p5189
sVqueryType
p5190
VSELECT
p5191
sa(dp5192
Vdistinct
p5193
I01
sVwhere
p5194
(lp5195
(dp5196
Vtriples
p5197
(lp5198
(dp5199
Vpredicate
p5200
Vhttp://dbpedia.org/ontology/architect
p5201
sVobject
p5202
V?uri
p5203
sVsubject
p5204
Vhttp://dbpedia.org/resource/Brooklyn_Bridge
p5205
sasVtype
p5206
Vbgp
p5207
sasVvariables
p5208
(lp5209
V?uri
p5210
asVprefixes
p5211
(dp5212
Vres
p5213
Vhttp://dbpedia.org/resource/
p5214
sVdbo
p5215
Vhttp://dbpedia.org/ontology/
p5216
ssVtype
p5217
Vquery
p5218
sVqueryType
p5219
VSELECT
p5220
sa(dp5221
Vdistinct
p5222
I01
sVwhere
p5223
(lp5224
(dp5225
Vtriples
p5226
(lp5227
(dp5228
Vpredicate
p5229
Vhttp://dbpedia.org/ontology/activeYearsEndDate
p5230
sVobject
p5231
V?d
p5232
sVsubject
p5233
Vhttp://dbpedia.org/resource/Boris_Becker
p5234
sasVtype
p5235
Vbgp
p5236
sasVvariables
p5237
(lp5238
V?d
p5239
asVprefixes
p5240
(dp5241
sVtype
p5242
Vquery
p5243
sVqueryType
p5244
VSELECT
p5245
sa(dp5246
Vdistinct
p5247
I01
sVwhere
p5248
(lp5249
(dp5250
Vtriples
p5251
(lp5252
(dp5253
Vpredicate
p5254
Vhttp://dbpedia.org/ontology/growingGrape
p5255
sVobject
p5256
V?uri
p5257
sVsubject
p5258
Vhttp://dbpedia.org/resource/Oregon_wine
p5259
sasVtype
p5260
Vbgp
p5261
sasVvariables
p5262
(lp5263
V?uri
p5264
asVprefixes
p5265
(dp5266
sVtype
p5267
Vquery
p5268
sVqueryType
p5269
VSELECT
p5270
sa(dp5271
Vdistinct
p5272
I01
sVwhere
p5273
(lp5274
(dp5275
Vtriples
p5276
(lp5277
(dp5278
Vpredicate
p5279
Vhttp://dbpedia.org/ontology/height
p5280
sVobject
p5281
V?num
p5282
sVsubject
p5283
Vhttp://dbpedia.org/resource/Michael_Jordan
p5284
sasVtype
p5285
Vbgp
p5286
sasVvariables
p5287
(lp5288
V?num
p5289
asVprefixes
p5290
(dp5291
Vres
p5292
Vhttp://dbpedia.org/resource/
p5293
sVdbo
p5294
Vhttp://dbpedia.org/ontology/
p5295
ssVtype
p5296
Vquery
p5297
sVqueryType
p5298
VSELECT
p5299
sa(dp5300
Vdistinct
p5301
I01
sVwhere
p5302
(lp5303
(dp5304
Vtriples
p5305
(lp5306
(dp5307
Vpredicate
p5308
Vhttp://dbpedia.org/ontology/mayor
p5309
sVobject
p5310
V?x
p5311
sVsubject
p5312
Vhttp://dbpedia.org/resource/Paris
p5313
sa(dp5314
Vpredicate
p5315
Vhttp://dbpedia.org/ontology/party
p5316
sVobject
p5317
V?uri
p5318
sVsubject
p5319
V?x
p5320
sasVtype
p5321
Vbgp
p5322
sasVvariables
p5323
(lp5324
V?uri
p5325
asVprefixes
p5326
(dp5327
sVtype
p5328
Vquery
p5329
sVqueryType
p5330
VSELECT
p5331
sa(dp5332
Vdistinct
p5333
I01
sVwhere
p5334
(lp5335
(dp5336
Vtriples
p5337
(lp5338
(dp5339
Vpredicate
p5340
Vhttp://dbpedia.org/ontology/author
p5341
sVobject
p5342
V?uri
p5343
sVsubject
p5344
Vhttp://dbpedia.org/resource/The_Pillars_of_the_Earth
p5345
sasVtype
p5346
Vbgp
p5347
sasVvariables
p5348
(lp5349
V?uri
p5350
asVprefixes
p5351
(dp5352
Vres
p5353
Vhttp://dbpedia.org/resource/
p5354
sVdbo
p5355
Vhttp://dbpedia.org/ontology/
p5356
ssVtype
p5357
Vquery
p5358
sVqueryType
p5359
VSELECT
p5360
sa(dp5361
Vdistinct
p5362
I01
sVwhere
p5363
(lp5364
(dp5365
Vtriples
p5366
(lp5367
(dp5368
Vpredicate
p5369
Vhttp://dbpedia.org/ontology/office
p5370
sVobject
p5371
V"President of the United States"
p5372
sVsubject
p5373
V?uri
p5374
sa(dp5375
Vpredicate
p5376
Vhttp://dbpedia.org/ontology/orderInOffice
p5377
sVobject
p5378
V"16th"
p5379
sVsubject
p5380
V?uri
p5381
sasVtype
p5382
Vbgp
p5383
sasVvariables
p5384
(lp5385
V?uri
p5386
asVprefixes
p5387
(dp5388
Vrdf
p5389
Vhttp://www.w3.org/1999/02/22-rdf-syntax-ns#
p5390
sVdbo
p5391
Vhttp://dbpedia.org/ontology/
p5392
ssVtype
p5393
Vquery
p5394
sVqueryType
p5395
VSELECT
p5396
sa(dp5397
Vdistinct
p5398
I01
sVwhere
p5399
(lp5400
(dp5401
Vtriples
p5402
(lp5403
(dp5404
Vpredicate
p5405
Vhttp://dbpedia.org/ontology/elevation
p5406
sVobject
p5407
V?num
p5408
sVsubject
p5409
Vhttp://dbpedia.org/resource/Mount_Everest
p5410
sasVtype
p5411
Vbgp
p5412
sasVvariables
p5413
(lp5414
V?num
p5415
asVprefixes
p5416
(dp5417
Vres
p5418
Vhttp://dbpedia.org/resource/
p5419
sVdbo
p5420
Vhttp://dbpedia.org/ontology/
p5421
ssVtype
p5422
Vquery
p5423
sVqueryType
p5424
VSELECT
p5425
sa(dp5426
Vdistinct
p5427
I01
sVwhere
p5428
(lp5429
(dp5430
Vtriples
p5431
(lp5432
(dp5433
Vpredicate
p5434
Vhttp://dbpedia.org/ontology/doctoralAdvisor
p5435
sVobject
p5436
V?uri
p5437
sVsubject
p5438
Vhttp://dbpedia.org/resource/Albert_Einstein
p5439
sasVtype
p5440
Vbgp
p5441
sasVvariables
p5442
(lp5443
V?uri
p5444
asVprefixes
p5445
(dp5446
sVtype
p5447
Vquery
p5448
sVqueryType
p5449
VSELECT
p5450
sa(dp5451
Vdistinct
p5452
I01
sVwhere
p5453
(lp5454
(dp5455
Vtriples
p5456
(lp5457
(dp5458
Vpredicate
p5459
Vhttp://www.w3.org/1999/02/22-rdf-syntax-ns#type
p5460
sVobject
p5461
Vhttp://dbpedia.org/ontology/City
p5462
sVsubject
p5463
V?uri
p5464
sa(dp5465
Vpredicate
p5466
Vhttp://dbpedia.org/ontology/residence
p5467
sVobject
p5468
V?uri
p5469
sVsubject
p5470
Vhttp://dbpedia.org/resource/Sylvester_Stallone
p5471
sasVtype
p5472
Vbgp
p5473
sasVvariables
p5474
(lp5475
V?uri
p5476
asVprefixes
p5477
(dp5478
sVtype
p5479
Vquery
p5480
sVqueryType
p5481
VSELECT
p5482
sa(dp5483
Vdistinct
p5484
I01
sVwhere
p5485
(lp5486
(dp5487
Vtriples
p5488
(lp5489
(dp5490
Vpredicate
p5491
Vhttp://dbpedia.org/ontology/currency
p5492
sVobject
p5493
V?uri
p5494
sVsubject
p5495
Vhttp://dbpedia.org/resource/Czech_Republic
p5496
sasVtype
p5497
Vbgp
p5498
sasVvariables
p5499
(lp5500
V?uri
p5501
asVprefixes
p5502
(dp5503
Vres
p5504
Vhttp://dbpedia.org/resource/
p5505
sVdbo
p5506
Vhttp://dbpedia.org/ontology/
p5507
ssVtype
p5508
Vquery
p5509
sVqueryType
p5510
VSELECT
p5511
sa(dp5512
Vprefixes
p5513
(dp5514
Vres
p5515
Vhttp://dbpedia.org/resource/
p5516
sVdbo
p5517
Vhttp://dbpedia.org/ontology/
p5518
ssVtype
p5519
Vquery
p5520
sVwhere
p5521
(lp5522
(dp5523
Vtriples
p5524
(lp5525
(dp5526
Vpredicate
p5527
Vhttp://dbpedia.org/ontology/influencedBy
p5528
sVobject
p5529
Vhttp://dbpedia.org/resource/Socrates
p5530
sVsubject
p5531
Vhttp://dbpedia.org/resource/Aristotle
p5532
sasVtype
p5533
Vbgp
p5534
sasVqueryType
p5535
VASK
p5536
sa(dp5537
Vdistinct
p5538
I01
sVwhere
p5539
(lp5540
(dp5541
Vtriples
p5542
(lp5543
(dp5544
Vpredicate
p5545
Vhttp://dbpedia.org/property/timezone
p5546
sVobject
p5547
V?uri
p5548
sVsubject
p5549
Vhttp://dbpedia.org/resource/Salt_Lake_City
p5550
sasVtype
p5551
Vbgp
p5552
sasVvariables
p5553
(lp5554
V?uri
p5555
asVprefixes
p5556
(dp5557
Vres
p5558
Vhttp://dbpedia.org/resource/
p5559
sVdbp
p5560
Vhttp://dbpedia.org/property/
p5561
ssVtype
p5562
Vquery
p5563
sVqueryType
p5564
VSELECT
p5565
sa(dp5566
Vdistinct
p5567
I01
sVwhere
p5568
(lp5569
(dp5570
Vtriples
p5571
(lp5572
(dp5573
Vpredicate
p5574
Vhttp://dbpedia.org/ontology/parent
p5575
sVobject
p5576
Vhttp://dbpedia.org/resource/Cher
p5577
sVsubject
p5578
V?uri
p5579
sa(dp5580
Vpredicate
p5581
Vhttp://dbpedia.org/ontology/parent
p5582
sVobject
p5583
Vhttp://dbpedia.org/resource/Sonny_Bono
p5584
sVsubject
p5585
V?uri
p5586
sasVtype
p5587
Vbgp
p5588
sasVvariables
p5589
(lp5590
V?uri
p5591
asVprefixes
p5592
(dp5593
sVtype
p5594
Vquery
p5595
sVqueryType
p5596
VSELECT
p5597
sa(dp5598
Vdistinct
p5599
I01
sVwhere
p5600
(lp5601
(dp5602
Vtriples
p5603
(lp5604
(dp5605
Vpredicate
p5606
Vhttp://dbpedia.org/ontology/location
p5607
sVobject
p5608
V?uri
p5609
sVsubject
p5610
Vhttp://dbpedia.org/resource/Headquarters_of_the_United_Nations
p5611
sa(dp5612
Vpredicate
p5613
Vhttp://www.w3.org/1999/02/22-rdf-syntax-ns#type
p5614
sVobject
p5615
Vhttp://dbpedia.org/ontology/City
p5616
sVsubject
p5617
V?uri
p5618
sasVtype
p5619
Vbgp
p5620
sasVvariables
p5621
(lp5622
V?uri
p5623
asVprefixes
p5624
(dp5625
sVtype
p5626
Vquery
p5627
sVqueryType
p5628
VSELECT
p5629
sa(dp5630
Vdistinct
p5631
I01
sVwhere
p5632
(lp5633
(dp5634
Vtriples
p5635
(lp5636
(dp5637
Vpredicate
p5638
Vhttp://dbpedia.org/ontology/founder
p5639
sVobject
p5640
V?uri
p5641
sVsubject
p5642
Vhttp://dbpedia.org/resource/Penguin_Books
p5643
sasVtype
p5644
Vbgp
p5645
sasVvariables
p5646
(lp5647
V?uri
p5648
asVprefixes
p5649
(dp5650
Vres
p5651
Vhttp://dbpedia.org/resource/
p5652
sVrdf
p5653
Vhttp://www.w3.org/1999/02/22-rdf-syntax-ns#
p5654
sVdbo
p5655
Vhttp://dbpedia.org/ontology/
p5656
ssVtype
p5657
Vquery
p5658
sVqueryType
p5659
VSELECT
p5660
sa(dp5661
Vdistinct
p5662
I01
sVwhere
p5663
(lp5664
(dp5665
Vtriples
p5666
(lp5667
(dp5668
Vpredicate
p5669
Vhttp://dbpedia.org/ontology/foundingYear
p5670
sVobject
p5671
V?year
p5672
sVsubject
p5673
Vhttp://dbpedia.org/resource/Jack_Wolfskin
p5674
sasVtype
p5675
Vbgp
p5676
sasVvariables
p5677
(lp5678
V?year
p5679
asVprefixes
p5680
(dp5681
sVtype
p5682
Vquery
p5683
sVqueryType
p5684
VSELECT
p5685
sa(dp5686
Vdistinct
p5687
I01
sVwhere
p5688
(lp5689
(dp5690
Vtriples
p5691
(lp5692
(dp5693
Vpredicate
p5694
Vhttp://dbpedia.org/ontology/leaderName
p5695
sVobject
p5696
V?uri
p5697
sVsubject
p5698
Vhttp://dbpedia.org/resource/Rotterdam
p5699
sasVtype
p5700
Vbgp
p5701
sasVvariables
p5702
(lp5703
V?uri
p5704
asVprefixes
p5705
(dp5706
Vres
p5707
Vhttp://dbpedia.org/resource/
p5708
sVdbo
p5709
Vhttp://dbpedia.org/ontology/
p5710
ssVtype
p5711
Vquery
p5712
sVqueryType
p5713
VSELECT
p5714
sa(dp5715
Vdistinct
p5716
I01
sVwhere
p5717
(lp5718
(dp5719
Vtriples
p5720
(lp5721
(dp5722
Vpredicate
p5723
Vhttp://dbpedia.org/ontology/field
p5724
sVobject
p5725
Vhttp://dbpedia.org/resource/Oceanography
p5726
sVsubject
p5727
V?uri
p5728
sa(dp5729
Vpredicate
p5730
Vhttp://dbpedia.org/ontology/birthPlace
p5731
sVobject
p5732
Vhttp://dbpedia.org/resource/Sweden
p5733
sVsubject
p5734
V?uri
p5735
sasVtype
p5736
Vbgp
p5737
sasVvariables
p5738
(lp5739
V?uri
p5740
asVprefixes
p5741
(dp5742
Vres
p5743
Vhttp://dbpedia.org/resource/
p5744
sVdbo
p5745
Vhttp://dbpedia.org/ontology/
p5746
ssVtype
p5747
Vquery
p5748
sVqueryType
p5749
VSELECT
p5750
sa(dp5751
Vdistinct
p5752
I01
sVwhere
p5753
(lp5754
(dp5755
Vtriples
p5756
(lp5757
(dp5758
Vpredicate
p5759
Vhttp://dbpedia.org/ontology/author
p5760
sVobject
p5761
Vhttp://dbpedia.org/resource/Ernest_Hemingway
p5762
sVsubject
p5763
V?uri
p5764
sa(dp5765
Vpredicate
p5766
Vhttp://dbpedia.org/ontology/literaryGenre
p5767
sVobject
p5768
Vhttp://dbpedia.org/resource/Autobiography
p5769
sVsubject
p5770
V?uri
p5771
sasVtype
p5772
Vbgp
p5773
sasVvariables
p5774
(lp5775
V?uri
p5776
asVprefixes
p5777
(dp5778
sVtype
p5779
Vquery
p5780
sVqueryType
p5781
VSELECT
p5782
sa(dp5783
Vdistinct
p5784
I01
sVwhere
p5785
(lp5786
(dp5787
Vtriples
p5788
(lp5789
(dp5790
Vpredicate
p5791
Vhttp://dbpedia.org/ontology/spouse
p5792
sVobject
p5793
V?x
p5794
sVsubject
p5795
Vhttp://dbpedia.org/resource/Juan_Carlos_I_of_Spain
p5796
sa(dp5797
Vpredicate
p5798
Vhttp://dbpedia.org/ontology/parent
p5799
sVobject
p5800
V?uri
p5801
sVsubject
p5802
V?x
p5803
sasVtype
p5804
Vbgp
p5805
sasVvariables
p5806
(lp5807
V?uri
p5808
asVprefixes
p5809
(dp5810
Vres
p5811
Vhttp://dbpedia.org/resource/
p5812
sVdbo
p5813
Vhttp://dbpedia.org/ontology/
p5814
ssVtype
p5815
Vquery
p5816
sVqueryType
p5817
VSELECT
p5818
sa(dp5819
Vprefixes
p5820
(dp5821
Vres
p5822
Vhttp://dbpedia.org/resource/
p5823
sVdbo
p5824
Vhttp://dbpedia.org/ontology/
p5825
ssVtype
p5826
Vquery
p5827
sVwhere
p5828
(lp5829
(dp5830
Vtriples
p5831
(lp5832
(dp5833
Vpredicate
p5834
Vhttp://dbpedia.org/ontology/award
p5835
sVobject
p5836
Vhttp://dbpedia.org/resource/Nobel_Prize_in_Physics
p5837
sVsubject
p5838
Vhttp://dbpedia.org/resource/Nikola_Tesla
p5839
sasVtype
p5840
Vbgp
p5841
sasVqueryType
p5842
VASK
p5843
sa(dp5844
Vdistinct
p5845
I01
sVtype
p5846
Vquery
p5847
sVvariables
p5848
(lp5849
V?uri
p5850
asVorder
p5851
(lp5852
(dp5853
Vdescending
p5854
I01
sVexpression
p5855
V?num
p5856
sasVprefixes
p5857
(dp5858
sVlimit
p5859
I1
sVoffset
p5860
I0
sVwhere
p5861
(lp5862
(dp5863
Vtriples
p5864
(lp5865
(dp5866
Vpredicate
p5867
Vhttp://www.w3.org/1999/02/22-rdf-syntax-ns#type
p5868
sVobject
p5869
Vhttp://dbpedia.org/ontology/BasketballPlayer
p5870
sVsubject
p5871
V?uri
p5872
sa(dp5873
Vpredicate
p5874
Vhttp://dbpedia.org/ontology/height
p5875
sVobject
p5876
V?num
p5877
sVsubject
p5878
V?uri
p5879
sasVtype
p5880
Vbgp
p5881
sasVqueryType
p5882
VSELECT
p5883
sa(dp5884
Vdistinct
p5885
I01
sVtype
p5886
Vquery
p5887
sVvariables
p5888
(lp5889
V?uri
p5890
asVorder
p5891
(lp5892
(dp5893
Vexpression
p5894
V?pop
p5895
sasVprefixes
p5896
(dp5897
sVlimit
p5898
I1
sVoffset
p5899
I0
sVwhere
p5900
(lp5901
(dp5902
Vtriples
p5903
(lp5904
(dp5905
Vpredicate
p5906
Vhttp://www.w3.org/1999/02/22-rdf-syntax-ns#type
p5907
sVobject
p5908
Vhttp://dbpedia.org/ontology/City
p5909
sVsubject
p5910
V?uri
p5911
sa(dp5912
Vpredicate
p5913
Vhttp://dbpedia.org/ontology/populationTotal
p5914
sVobject
p5915
V?pop
p5916
sVsubject
p5917
V?uri
p5918
sasVtype
p5919
Vbgp
p5920
sasVqueryType
p5921
VSELECT
p5922
sa(dp5923
Vprefixes
p5924
(dp5925
Vres
p5926
Vhttp://dbpedia.org/resource/
p5927
sVrdf
p5928
Vhttp://www.w3.org/1999/02/22-rdf-syntax-ns#
p5929
sVdbo
p5930
Vhttp://dbpedia.org/ontology/
p5931
ssVtype
p5932
Vquery
p5933
sVwhere
p5934
(lp5935
(dp5936
Vtriples
p5937
(lp5938
(dp5939
Vpredicate
p5940
Vhttp://www.w3.org/1999/02/22-rdf-syntax-ns#type
p5941
sVobject
p5942
Vhttp://dbpedia.org/ontology/Protein
p5943
sVsubject
p5944
Vhttp://dbpedia.org/resource/Proinsulin
p5945
sasVtype
p5946
Vbgp
p5947
sasVqueryType
p5948
VASK
p5949
sa(dp5950
Vdistinct
p5951
I01
sVwhere
p5952
(lp5953
(dp5954
Vtriples
p5955
(lp5956
(dp5957
Vpredicate
p5958
Vhttp://dbpedia.org/ontology/parent
p5959
sVobject
p5960
V?uri
p5961
sVsubject
p5962
Vhttp://dbpedia.org/resource/Queen_Victoria
p5963
sasVtype
p5964
Vbgp
p5965
sasVvariables
p5966
(lp5967
V?uri
p5968
asVprefixes
p5969
(dp5970
Vres
p5971
Vhttp://dbpedia.org/resource/
p5972
sVdbo
p5973
Vhttp://dbpedia.org/ontology/
p5974
ssVtype
p5975
Vquery
p5976
sVqueryType
p5977
VSELECT
p5978
sa(dp5979
Vprefixes
p5980
(dp5981
Vres
p5982
Vhttp://dbpedia.org/resource/
p5983
sVdbo
p5984
Vhttp://dbpedia.org/ontology/
p5985
ssVtype
p5986
Vquery
p5987
sVwhere
p5988
(lp5989
(dp5990
Vtriples
p5991
(lp5992
(dp5993
Vpredicate
p5994
Vhttp://dbpedia.org/ontology/child
p5995
sVobject
p5996
V?uri
p5997
sVsubject
p5998
Vhttp://dbpedia.org/resource/Che_Guevara
p5999
sasVtype
p6000
Vbgp
p6001
sasVqueryType
p6002
VASK
p6003
sa(dp6004
Vprefixes
p6005
(dp6006
Vres
p6007
Vhttp://dbpedia.org/resource/
p6008
sVdbo
p6009
Vhttp://dbpedia.org/ontology/
p6010
ssVtype
p6011
Vquery
p6012
sVwhere
p6013
(lp6014
(dp6015
Vtriples
p6016
(lp6017
(dp6018
Vpredicate
p6019
Vhttp://dbpedia.org/ontology/areaTotal
p6020
sVobject
p6021
V?a1
p6022
sVsubject
p6023
Vhttp://dbpedia.org/resource/Lake_Baikal
p6024
sa(dp6025
Vpredicate
p6026
Vhttp://dbpedia.org/ontology/areaTotal
p6027
sVobject
p6028
V?a2
p6029
sVsubject
p6030
Vhttp://dbpedia.org/resource/Great_Bear_Lake
p6031
sasVtype
p6032
Vbgp
p6033
sa(dp6034
Vexpression
p6035
(dp6036
Voperator
p6037
V>
p6038
sVargs
p6039
(lp6040
V?a1
p6041
aV?a2
p6042
asVtype
p6043
Voperation
p6044
ssVtype
p6045
Vfilter
p6046
sasVqueryType
p6047
VASK
p6048
sa(dp6049
Vprefixes
p6050
(dp6051
sVtype
p6052
Vquery
p6053
sVwhere
p6054
(lp6055
(dp6056
Vtriples
p6057
(lp6058
(dp6059
Vpredicate
p6060
Vhttp://dbpedia.org/ontology/award
p6061
sVobject
p6062
Vhttp://dbpedia.org/resource/Grand_Prix_(Cannes_Film_Festival)
p6063
sVsubject
p6064
Vhttp://dbpedia.org/resource/Aki_Kaurismki
p6065
sasVtype
p6066
Vbgp
p6067
sasVqueryType
p6068
VASK
p6069
sa(dp6070
Vdistinct
p6071
I01
sVwhere
p6072
(lp6073
(dp6074
Vtriples
p6075
(lp6076
(dp6077
Vpredicate
p6078
Vhttp://www.w3.org/1999/02/22-rdf-syntax-ns#type
p6079
sVobject
p6080
Vhttp://dbpedia.org/ontology/Book
p6081
sVsubject
p6082
V?uri
p6083
sa(dp6084
Vpredicate
p6085
Vhttp://dbpedia.org/ontology/author
p6086
sVobject
p6087
Vhttp://dbpedia.org/resource/William_Goldman
p6088
sVsubject
p6089
V?uri
p6090
sa(dp6091
Vpredicate
p6092
Vhttp://dbpedia.org/ontology/numberOfPages
p6093
sVobject
p6094
V?x
p6095
sVsubject
p6096
V?uri
p6097
sasVtype
p6098
Vbgp
p6099
sa(dp6100
Vexpression
p6101
(dp6102
Voperator
p6103
V>
p6104
sVargs
p6105
(lp6106
V?x
p6107
aV"300"^^http://www.w3.org/2001/XMLSchema#integer
p6108
asVtype
p6109
Voperation
p6110
ssVtype
p6111
Vfilter
p6112
sasVvariables
p6113
(lp6114
V?uri
p6115
asVprefixes
p6116
(dp6117
Vres
p6118
Vhttp://dbpedia.org/resource/
p6119
sVrdf
p6120
Vhttp://www.w3.org/1999/02/22-rdf-syntax-ns#
p6121
sVdbo
p6122
Vhttp://dbpedia.org/ontology/
p6123
ssVtype
p6124
Vquery
p6125
sVqueryType
p6126
VSELECT
p6127
sa(dp6128
Vdistinct
p6129
I01
sVwhere
p6130
(lp6131
(dp6132
Vtriples
p6133
(lp6134
(dp6135
Vpredicate
p6136
Vhttp://dbpedia.org/property/location
p6137
sVobject
p6138
V?uri
p6139
sVsubject
p6140
Vhttp://dbpedia.org/resource/Fort_Knox
p6141
sasVtype
p6142
Vbgp
p6143
sasVvariables
p6144
(lp6145
V?uri
p6146
asVprefixes
p6147
(dp6148
sVtype
p6149
Vquery
p6150
sVqueryType
p6151
VSELECT
p6152
sa(dp6153
Vdistinct
p6154
I01
sVwhere
p6155
(lp6156
(dp6157
Vtriples
p6158
(lp6159
(dp6160
Vpredicate
p6161
Vhttp://dbpedia.org/property/location
p6162
sVobject
p6163
V?uri
p6164
sVsubject
p6165
Vhttp://dbpedia.org/resource/Fort_Knox
p6166
sa(dp6167
Vpredicate
p6168
Vhttp://dbpedia.org/ontology/country
p6169
sVobject
p6170
Vhttp://dbpedia.org/resource/United_States
p6171
sVsubject
p6172
V?uri
p6173
sasVtype
p6174
Vbgp
p6175
sasVvariables
p6176
(lp6177
V?uri
p6178
asVprefixes
p6179
(dp6180
Vdbp
p6181
Vhttp://dbpedia.org/property/
p6182
sVdbo
p6183
Vhttp://dbpedia.org/ontology/
p6184
sVres
p6185
Vhttp://dbpedia.org/resource/
p6186
ssVtype
p6187
Vquery
p6188
sVqueryType
p6189
VSELECT
p6190
sa(dp6191
Vdistinct
p6192
I01
sVwhere
p6193
(lp6194
(dp6195
Vtriples
p6196
(lp6197
(dp6198
Vpredicate
p6199
Vhttp://dbpedia.org/ontology/restingPlace
p6200
sVobject
p6201
V?uri
p6202
sVsubject
p6203
Vhttp://dbpedia.org/resource/Syngman_Rhee
p6204
sasVtype
p6205
Vbgp
p6206
sasVvariables
p6207
(lp6208
V?uri
p6209
asVprefixes
p6210
(dp6211
sVtype
p6212
Vquery
p6213
sVqueryType
p6214
VSELECT
p6215
sa(dp6216
Vdistinct
p6217
I01
sVwhere
p6218
(lp6219
(dp6220
Vtriples
p6221
(lp6222
(dp6223
Vpredicate
p6224
Vhttp://dbpedia.org/ontology/timeZone
p6225
sVobject
p6226
V?uri
p6227
sVsubject
p6228
Vhttp://dbpedia.org/resource/San_Pedro_de_Atacama
p6229
sasVtype
p6230
Vbgp
p6231
sasVvariables
p6232
(lp6233
V?uri
p6234
asVprefixes
p6235
(dp6236
sVtype
p6237
Vquery
p6238
sVqueryType
p6239
VSELECT
p6240
sa(dp6241
Vdistinct
p6242
I01
sVwhere
p6243
(lp6244
(dp6245
Vtriples
p6246
(lp6247
(dp6248
Vpredicate
p6249
Vhttp://dbpedia.org/ontology/author
p6250
sVobject
p6251
V?person
p6252
sVsubject
p6253
Vhttp://dbpedia.org/resource/The_Three_Dancers
p6254
sa(dp6255
Vpredicate
p6256
Vhttp://dbpedia.org/ontology/movement
p6257
sVobject
p6258
V?uri
p6259
sVsubject
p6260
V?person
p6261
sasVtype
p6262
Vbgp
p6263
sasVvariables
p6264
(lp6265
V?uri
p6266
asVprefixes
p6267
(dp6268
sVtype
p6269
Vquery
p6270
sVqueryType
p6271
VSELECT
p6272
sa(dp6273
Vdistinct
p6274
I01
sVwhere
p6275
(lp6276
(dp6277
Vtriples
p6278
(lp6279
(dp6280
Vpredicate
p6281
Vhttp://dbpedia.org/ontology/knownFor
p6282
sVobject
p6283
Vhttp://dbpedia.org/resource/Manhattan_Project
p6284
sVsubject
p6285
V?uri
p6286
sa(dp6287
Vpredicate
p6288
Vhttp://www.w3.org/1999/02/22-rdf-syntax-ns#type
p6289
sVobject
p6290
Vhttp://dbpedia.org/ontology/Scientist
p6291
sVsubject
p6292
V?uri
p6293
sa(dp6294
Vpredicate
p6295
Vhttp://dbpedia.org/ontology/knownFor
p6296
sVobject
p6297
Vhttp://dbpedia.org/resource/Nobel_Peace_Prize
p6298
sVsubject
p6299
V?uri
p6300
sasVtype
p6301
Vbgp
p6302
sasVvariables
p6303
(lp6304
V?uri
p6305
asVprefixes
p6306
(dp6307
Vres
p6308
Vhttp://dbpedia.org/resource/
p6309
sVrdf
p6310
Vhttp://www.w3.org/1999/02/22-rdf-syntax-ns#
p6311
sVdbo
p6312
Vhttp://dbpedia.org/ontology/
p6313
ssVtype
p6314
Vquery
p6315
sVqueryType
p6316
VSELECT
p6317
sa(dp6318
Vdistinct
p6319
I01
sVwhere
p6320
(lp6321
(dp6322
Vtriples
p6323
(lp6324
(dp6325
Vpredicate
p6326
Vhttp://dbpedia.org/ontology/series
p6327
sVobject
p6328
Vhttp://dbpedia.org/resource/Foundation_series
p6329
sVsubject
p6330
V?uri
p6331
sasVtype
p6332
Vbgp
p6333
sasVvariables
p6334
(lp6335
V?uri
p6336
asVprefixes
p6337
(dp6338
sVtype
p6339
Vquery
p6340
sVqueryType
p6341
VSELECT
p6342
sa(dp6343
Vdistinct
p6344
I01
sVwhere
p6345
(lp6346
(dp6347
Vtriples
p6348
(lp6349
(dp6350
Vpredicate
p6351
Vhttp://www.w3.org/1999/02/22-rdf-syntax-ns#type
p6352
sVobject
p6353
Vhttp://dbpedia.org/ontology/City
p6354
sVsubject
p6355
V?uri
p6356
sa(dp6357
Vpredicate
p6358
Vhttp://dbpedia.org/ontology/isPartOf
p6359
sVobject
p6360
Vhttp://dbpedia.org/resource/New_Jersey
p6361
sVsubject
p6362
V?uri
p6363
sa(dp6364
Vpredicate
p6365
Vhttp://dbpedia.org/property/populationTotal
p6366
sVobject
p6367
V?inhabitants
p6368
sVsubject
p6369
V?uri
p6370
sasVtype
p6371
Vbgp
p6372
sa(dp6373
Vexpression
p6374
(dp6375
Voperator
p6376
V>
p6377
sVargs
p6378
(lp6379
V?inhabitants
p6380
aV"100000"^^http://www.w3.org/2001/XMLSchema#integer
p6381
asVtype
p6382
Voperation
p6383
ssVtype
p6384
Vfilter
p6385
sasVvariables
p6386
(lp6387
V?uri
p6388
asVprefixes
p6389
(dp6390
Vdbp
p6391
Vhttp://dbpedia.org/property/
p6392
sVrdf
p6393
Vhttp://www.w3.org/1999/02/22-rdf-syntax-ns#
p6394
sVdbo
p6395
Vhttp://dbpedia.org/ontology/
p6396
sVres
p6397
Vhttp://dbpedia.org/resource/
p6398
ssVtype
p6399
Vquery
p6400
sVqueryType
p6401
VSELECT
p6402
sa(dp6403
Vdistinct
p6404
I01
sVtype
p6405
Vquery
p6406
sVvariables
p6407
(lp6408
V?uri
p6409
asVorder
p6410
(lp6411
(dp6412
Vdescending
p6413
I01
sVexpression
p6414
V?num
p6415
sasVprefixes
p6416
(dp6417
sVlimit
p6418
I1
sVoffset
p6419
I0
sVwhere
p6420
(lp6421
(dp6422
Vtriples
p6423
(lp6424
(dp6425
Vpredicate
p6426
Vhttp://www.w3.org/1999/02/22-rdf-syntax-ns#type
p6427
sVobject
p6428
Vhttp://dbpedia.org/ontology/Museum
p6429
sVsubject
p6430
V?uri
p6431
sa(dp6432
Vpredicate
p6433
Vhttp://dbpedia.org/ontology/location
p6434
sVobject
p6435
Vhttp://dbpedia.org/resource/New_York_City
p6436
sVsubject
p6437
V?uri
p6438
sa(dp6439
Vpredicate
p6440
Vhttp://dbpedia.org/ontology/numberOfVisitors
p6441
sVobject
p6442
V?num
p6443
sVsubject
p6444
V?uri
p6445
sasVtype
p6446
Vbgp
p6447
sasVqueryType
p6448
VSELECT
p6449
sa(dp6450
Vdistinct
p6451
I01
sVwhere
p6452
(lp6453
(dp6454
Vtriples
p6455
(lp6456
(dp6457
Vpredicate
p6458
Vhttp://dbpedia.org/ontology/height
p6459
sVobject
p6460
V?num
p6461
sVsubject
p6462
Vhttp://dbpedia.org/resource/Yokohama_Marine_Tower
p6463
sasVtype
p6464
Vbgp
p6465
sasVvariables
p6466
(lp6467
V?num
p6468
asVprefixes
p6469
(dp6470
Vres
p6471
Vhttp://dbpedia.org/resource/
p6472
sVdbo
p6473
Vhttp://dbpedia.org/ontology/
p6474
ssVtype
p6475
Vquery
p6476
sVqueryType
p6477
VSELECT
p6478
sa(dp6479
Vprefixes
p6480
(dp6481
Vres
p6482
Vhttp://dbpedia.org/resource/
p6483
sVdbo
p6484
Vhttp://dbpedia.org/ontology/
p6485
ssVtype
p6486
Vquery
p6487
sVwhere
p6488
(lp6489
(dp6490
Vtriples
p6491
(lp6492
(dp6493
Vpredicate
p6494
Vhttp://dbpedia.org/ontology/numberOfEpisodes
p6495
sVobject
p6496
V?x
p6497
sVsubject
p6498
Vhttp://dbpedia.org/resource/Battlestar_Galactica_%281978_TV_series%29
p6499
sa(dp6500
Vpredicate
p6501
Vhttp://dbpedia.org/ontology/numberOfEpisodes
p6502
sVobject
p6503
V?y
p6504
sVsubject
p6505
Vhttp://dbpedia.org/resource/Battlestar_Galactica_%282004_TV_series%29
p6506
sasVtype
p6507
Vbgp
p6508
sa(dp6509
Vexpression
p6510
(dp6511
Voperator
p6512
V>
p6513
sVargs
p6514
(lp6515
V?y
p6516
aV?x
p6517
asVtype
p6518
Voperation
p6519
ssVtype
p6520
Vfilter
p6521
sasVqueryType
p6522
VASK
p6523
sa(dp6524
Vdistinct
p6525
I01
sVtype
p6526
Vquery
p6527
sVvariables
p6528
(lp6529
V?uri
p6530
asVorder
p6531
(lp6532
(dp6533
Vdescending
p6534
I01
sVexpression
p6535
V?date
p6536
sasVprefixes
p6537
(dp6538
Vrdf
p6539
Vhttp://www.w3.org/1999/02/22-rdf-syntax-ns#
p6540
sVdbo
p6541
Vhttp://dbpedia.org/ontology/
p6542
ssVlimit
p6543
I1
sVoffset
p6544
I0
sVwhere
p6545
(lp6546
(dp6547
Vtriples
p6548
(lp6549
(dp6550
Vpredicate
p6551
Vhttp://www.w3.org/1999/02/22-rdf-syntax-ns#type
p6552
sVobject
p6553
Vhttp://dbpedia.org/ontology/DartsPlayer
p6554
sVsubject
p6555
V?uri
p6556
sa(dp6557
Vpredicate
p6558
Vhttp://dbpedia.org/ontology/birthDate
p6559
sVobject
p6560
V?date
p6561
sVsubject
p6562
V?uri
p6563
sasVtype
p6564
Vbgp
p6565
sasVqueryType
p6566
VSELECT
p6567
sa(dp6568
Vdistinct
p6569
I01
sVwhere
p6570
(lp6571
(dp6572
Vtriples
p6573
(lp6574
(dp6575
Vpredicate
p6576
Vhttp://dbpedia.org/ontology/developer
p6577
sVobject
p6578
V?uri
p6579
sVsubject
p6580
Vhttp://dbpedia.org/resource/World_of_Warcraft
p6581
sasVtype
p6582
Vbgp
p6583
sasVvariables
p6584
(lp6585
V?uri
p6586
asVprefixes
p6587
(dp6588
Vres
p6589
Vhttp://dbpedia.org/resource/
p6590
sVdbo
p6591
Vhttp://dbpedia.org/ontology/
p6592
ssVtype
p6593
Vquery
p6594
sVqueryType
p6595
VSELECT
p6596
sa(dp6597
Vprefixes
p6598
(dp6599
Vres
p6600
Vhttp://dbpedia.org/resource/
p6601
sVrdf
p6602
Vhttp://www.w3.org/1999/02/22-rdf-syntax-ns#
p6603
sVdbo
p6604
Vhttp://dbpedia.org/ontology/
p6605
ssVtype
p6606
Vquery
p6607
sVvariables
p6608
(lp6609
V?uri
p6610
asVwhere
p6611
(lp6612
(dp6613
Vtriples
p6614
(lp6615
(dp6616
Vpredicate
p6617
Vhttp://www.w3.org/1999/02/22-rdf-syntax-ns#type
p6618
sVobject
p6619
Vhttp://dbpedia.org/ontology/Pope
p6620
sVsubject
p6621
V?uri
p6622
sa(dp6623
Vpredicate
p6624
Vhttp://dbpedia.org/ontology/foundedBy
p6625
sVobject
p6626
V?uri
p6627
sVsubject
p6628
Vhttp://dbpedia.org/resource/Vatican_Television_Center
p6629
sasVtype
p6630
Vbgp
p6631
sasVqueryType
p6632
VSELECT
p6633
sa(dp6634
Vdistinct
p6635
I01
sVwhere
p6636
(lp6637
(dp6638
Vtriples
p6639
(lp6640
(dp6641
Vpredicate
p6642
Vhttp://dbpedia.org/ontology/musicComposer
p6643
sVobject
p6644
V?uri
p6645
sVsubject
p6646
Vhttp://dbpedia.org/resource/Harold_and_Maude
p6647
sasVtype
p6648
Vbgp
p6649
sasVvariables
p6650
(lp6651
V?uri
p6652
asVprefixes
p6653
(dp6654
Vres
p6655
Vhttp://dbpedia.org/resource/
p6656
sVdbo
p6657
Vhttp://dbpedia.org/ontology/
p6658
ssVtype
p6659
Vquery
p6660
sVqueryType
p6661
VSELECT
p6662
sa(dp6663
Vdistinct
p6664
I01
sVwhere
p6665
(lp6666
(dp6667
Vtriples
p6668
(lp6669
(dp6670
Vpredicate
p6671
Vhttp://dbpedia.org/ontology/bandMember
p6672
sVobject
p6673
V?uri
p6674
sVsubject
p6675
Vhttp://dbpedia.org/resource/The_Prodigy
p6676
sasVtype
p6677
Vbgp
p6678
sasVvariables
p6679
(lp6680
V?uri
p6681
asVprefixes
p6682
(dp6683
sVtype
p6684
Vquery
p6685
sVqueryType
p6686
VSELECT
p6687
sa(dp6688
Vdistinct
p6689
I01
sVwhere
p6690
(lp6691
(dp6692
Vtriples
p6693
(lp6694
(dp6695
Vpredicate
p6696
Vhttp://www.w3.org/1999/02/22-rdf-syntax-ns#type
p6697
sVobject
p6698
Vhttp://dbpedia.org/ontology/Film
p6699
sVsubject
p6700
V?film
p6701
sa(dp6702
Vpredicate
p6703
Vhttp://dbpedia.org/ontology/country
p6704
sVobject
p6705
Vhttp://dbpedia.org/resource/Spain
p6706
sVsubject
p6707
V?film
p6708
sa(dp6709
Vpredicate
p6710
Vhttp://dbpedia.org/ontology/producer
p6711
sVobject
p6712
Vhttp://dbpedia.org/resource/Benicio_del_Toro
p6713
sVsubject
p6714
V?film
p6715
sa(dp6716
Vpredicate
p6717
Vhttp://dbpedia.org/ontology/starring
p6718
sVobject
p6719
V?uri
p6720
sVsubject
p6721
V?film
p6722
sa(dp6723
Vpredicate
p6724
Vhttp://www.w3.org/1999/02/22-rdf-syntax-ns#type
p6725
sVobject
p6726
Vhttp://dbpedia.org/ontology/Person
p6727
sVsubject
p6728
V?uri
p6729
sasVtype
p6730
Vbgp
p6731
sasVvariables
p6732
(lp6733
V?uri
p6734
asVprefixes
p6735
(dp6736
sVtype
p6737
Vquery
p6738
sVqueryType
p6739
VSELECT
p6740
sa(dp6741
Vdistinct
p6742
I01
sVwhere
p6743
(lp6744
(dp6745
Vtriples
p6746
(lp6747
(dp6748
Vpredicate
p6749
Vhttp://dbpedia.org/ontology/subsidiary
p6750
sVobject
p6751
V?uri
p6752
sVsubject
p6753
Vhttp://dbpedia.org/resource/TUI_Travel
p6754
sa(dp6755
Vpredicate
p6756
Vhttp://dbpedia.org/ontology/targetAirport
p6757
sVobject
p6758
Vhttp://dbpedia.org/resource/Glasgow_Airport
p6759
sVsubject
p6760
V?uri
p6761
sa(dp6762
Vpredicate
p6763
Vhttp://dbpedia.org/ontology/targetAirport
p6764
sVobject
p6765
Vhttp://dbpedia.org/resource/Dublin_Airport
p6766
sVsubject
p6767
V?uri
p6768
sasVtype
p6769
Vbgp
p6770
sasVvariables
p6771
(lp6772
V?uri
p6773
asVprefixes
p6774
(dp6775
sVtype
p6776
Vquery
p6777
sVqueryType
p6778
VSELECT
p6779
sa(dp6780
Vdistinct
p6781
I01
sVwhere
p6782
(lp6783
(dp6784
Vtriples
p6785
(lp6786
(dp6787
Vpredicate
p6788
Vhttp://dbpedia.org/ontology/country
p6789
sVobject
p6790
V?uri
p6791
sVsubject
p6792
Vhttp://dbpedia.org/resource/Mecca
p6793
sasVtype
p6794
Vbgp
p6795
sasVvariables
p6796
(lp6797
V?uri
p6798
asVprefixes
p6799
(dp6800
Vres
p6801
Vhttp://dbpedia.org/resource/
p6802
sVdbo
p6803
Vhttp://dbpedia.org/ontology/
p6804
ssVtype
p6805
Vquery
p6806
sVqueryType
p6807
VSELECT
p6808
sa(dp6809
Vprefixes
p6810
(dp6811
sVtype
p6812
Vquery
p6813
sVvariables
p6814
(lp6815
(dp6816
Vvariable
p6817
V?c
p6818
sVexpression
p6819
(dp6820
Vdistinct
p6821
I01
sVtype
p6822
Vaggregate
p6823
sVexpression
p6824
V?uri
p6825
sVaggregation
p6826
Vcount
p6827
ssasVwhere
p6828
(lp6829
(dp6830
Vtriples
p6831
(lp6832
(dp6833
Vpredicate
p6834
Vhttp://www.w3.org/1999/02/22-rdf-syntax-ns#type
p6835
sVobject
p6836
Vhttp://dbpedia.org/ontology/Language
p6837
sVsubject
p6838
V?uri
p6839
sa(dp6840
Vpredicate
p6841
Vhttp://dbpedia.org/ontology/language
p6842
sVobject
p6843
V?uri
p6844
sVsubject
p6845
Vhttp://dbpedia.org/resource/Colombia
p6846
sasVtype
p6847
Vbgp
p6848
sasVqueryType
p6849
VSELECT
p6850
sa(dp6851
Vdistinct
p6852
I01
sVtype
p6853
Vquery
p6854
sVvariables
p6855
(lp6856
V?uri
p6857
asVorder
p6858
(lp6859
(dp6860
Vdescending
p6861
I01
sVexpression
p6862
V?n
p6863
sasVprefixes
p6864
(dp6865
sVlimit
p6866
I1
sVoffset
p6867
I0
sVwhere
p6868
(lp6869
(dp6870
Vtriples
p6871
(lp6872
(dp6873
Vpredicate
p6874
Vhttp://www.w3.org/1999/02/22-rdf-syntax-ns#type
p6875
sVobject
p6876
Vhttp://dbpedia.org/ontology/Stadium
p6877
sVsubject
p6878
V?uri
p6879
sa(dp6880
Vpredicate
p6881
Vhttp://dbpedia.org/ontology/location
p6882
sVobject
p6883
Vhttp://dbpedia.org/resource/Spain
p6884
sVsubject
p6885
V?uri
p6886
sa(dp6887
Vpredicate
p6888
Vhttp://dbpedia.org/ontology/seatingCapacity
p6889
sVobject
p6890
V?n
p6891
sVsubject
p6892
V?uri
p6893
sasVtype
p6894
Vbgp
p6895
sasVqueryType
p6896
VSELECT
p6897
sa(dp6898
Vdistinct
p6899
I01
sVwhere
p6900
(lp6901
(dp6902
Vtriples
p6903
(lp6904
(dp6905
Vpredicate
p6906
Vhttp://dbpedia.org/ontology/occupation
p6907
sVobject
p6908
Vhttp://dbpedia.org/resource/Surfing
p6909
sVsubject
p6910
V?uri
p6911
sa(dp6912
Vpredicate
p6913
Vhttp://dbpedia.org/ontology/birthPlace
p6914
sVobject
p6915
Vhttp://dbpedia.org/resource/Philippines
p6916
sVsubject
p6917
V?uri
p6918
sasVtype
p6919
Vbgp
p6920
sasVvariables
p6921
(lp6922
V?uri
p6923
asVprefixes
p6924
(dp6925
Vres
p6926
Vhttp://dbpedia.org/resource/
p6927
sVdbo
p6928
Vhttp://dbpedia.org/ontology/
p6929
ssVtype
p6930
Vquery
p6931
sVqueryType
p6932
VSELECT
p6933
sa(dp6934
Vdistinct
p6935
I01
sVwhere
p6936
(lp6937
(dp6938
Vtriples
p6939
(lp6940
(dp6941
Vpredicate
p6942
Vhttp://dbpedia.org/ontology/governmentType
p6943
sVobject
p6944
Vhttp://dbpedia.org/resource/Borough_(New_York_City)
p6945
sVsubject
p6946
V?uri
p6947
sasVtype
p6948
Vbgp
p6949
sasVvariables
p6950
(lp6951
V?uri
p6952
asVprefixes
p6953
(dp6954
sVtype
p6955
Vquery
p6956
sVqueryType
p6957
VSELECT
p6958
sa(dp6959
Vprefixes
p6960
(dp6961
Vres
p6962
Vhttp://dbpedia.org/resource/
p6963
sVrdf
p6964
Vhttp://www.w3.org/1999/02/22-rdf-syntax-ns#
p6965
sVdbo
p6966
Vhttp://dbpedia.org/ontology/
p6967
ssVtype
p6968
Vquery
p6969
sVwhere
p6970
(lp6971
(dp6972
Vtriples
p6973
(lp6974
(dp6975
Vpredicate
p6976
Vhttp://www.w3.org/1999/02/22-rdf-syntax-ns#type
p6977
sVobject
p6978
Vhttp://dbpedia.org/ontology/Beverage
p6979
sVsubject
p6980
Vhttp://dbpedia.org/resource/Cola
p6981
sasVtype
p6982
Vbgp
p6983
sasVqueryType
p6984
VASK
p6985
sa(dp6986
Vdistinct
p6987
I01
sVwhere
p6988
(lp6989
(dp6990
Vtriples
p6991
(lp6992
(dp6993
Vpredicate
p6994
Vhttp://dbpedia.org/ontology/deathDate
p6995
sVobject
p6996
V?d
p6997
sVsubject
p6998
Vhttp://dbpedia.org/resource/Diana,_Princess_of_Wales
p6999
sasVtype
p7000
Vbgp
p7001
sasVvariables
p7002
(lp7003
V?d
p7004
asVprefixes
p7005
(dp7006
sVtype
p7007
Vquery
p7008
sVqueryType
p7009
VSELECT
p7010
sa(dp7011
Vdistinct
p7012
I01
sVwhere
p7013
(lp7014
(dp7015
Vtriples
p7016
(lp7017
(dp7018
Vpredicate
p7019
Vhttp://dbpedia.org/ontology/wineProduced
p7020
sVobject
p7021
Vhttp://dbpedia.org/resource/Sparkling_wine
p7022
sVsubject
p7023
V?uri
p7024
sa(dp7025
Vpredicate
p7026
Vhttp://dbpedia.org/ontology/location
p7027
sVobject
p7028
Vhttp://dbpedia.org/resource/France
p7029
sVsubject
p7030
V?uri
p7031
sasVtype
p7032
Vbgp
p7033
sasVvariables
p7034
(lp7035
V?uri
p7036
asVprefixes
p7037
(dp7038
Vres
p7039
Vhttp://dbpedia.org/resource/
p7040
sVdbo
p7041
Vhttp://dbpedia.org/ontology/
p7042
ssVtype
p7043
Vquery
p7044
sVqueryType
p7045
VSELECT
p7046
sa.